ARM GAS  C:\Users\Fede\AppData\Local\Temp\ccrQaB1j.s 			page 1


   1              		.syntax unified
   2              		.cpu cortex-m3
   3              		.fpu softvfp
   4              		.eabi_attribute 20, 1
   5              		.eabi_attribute 21, 1
   6              		.eabi_attribute 23, 3
   7              		.eabi_attribute 24, 1
   8              		.eabi_attribute 25, 1
   9              		.eabi_attribute 26, 1
  10              		.eabi_attribute 30, 1
  11              		.eabi_attribute 34, 1
  12              		.eabi_attribute 18, 4
  13              		.thumb
  14              		.syntax unified
  15              		.file	"isr_timer.c"
  16              		.text
  17              	.Ltext0:
  18              		.cfi_sections	.debug_frame
  19              		.section	.text.isr_timer_Interrupt,"ax",%progbits
  20              		.align	2
  21              		.global	isr_timer_Interrupt
  22              		.thumb
  23              		.thumb_func
  24              		.type	isr_timer_Interrupt, %function
  25              	isr_timer_Interrupt:
  26              	.LFB3:
  27              		.file 1 "Generated_Source\\PSoC5\\isr_timer.c"
   1:Generated_Source\PSoC5/isr_timer.c **** /*******************************************************************************
   2:Generated_Source\PSoC5/isr_timer.c **** * File Name: isr_timer.c  
   3:Generated_Source\PSoC5/isr_timer.c **** * Version 1.70
   4:Generated_Source\PSoC5/isr_timer.c **** *
   5:Generated_Source\PSoC5/isr_timer.c **** *  Description:
   6:Generated_Source\PSoC5/isr_timer.c **** *   API for controlling the state of an interrupt.
   7:Generated_Source\PSoC5/isr_timer.c **** *
   8:Generated_Source\PSoC5/isr_timer.c **** *
   9:Generated_Source\PSoC5/isr_timer.c **** *  Note:
  10:Generated_Source\PSoC5/isr_timer.c **** *
  11:Generated_Source\PSoC5/isr_timer.c **** ********************************************************************************
  12:Generated_Source\PSoC5/isr_timer.c **** * Copyright 2008-2015, Cypress Semiconductor Corporation.  All rights reserved.
  13:Generated_Source\PSoC5/isr_timer.c **** * You may use this file only in accordance with the license, terms, conditions, 
  14:Generated_Source\PSoC5/isr_timer.c **** * disclaimers, and limitations in the end user license agreement accompanying 
  15:Generated_Source\PSoC5/isr_timer.c **** * the software package with which this file was provided.
  16:Generated_Source\PSoC5/isr_timer.c **** *******************************************************************************/
  17:Generated_Source\PSoC5/isr_timer.c **** 
  18:Generated_Source\PSoC5/isr_timer.c **** 
  19:Generated_Source\PSoC5/isr_timer.c **** #include <cydevice_trm.h>
  20:Generated_Source\PSoC5/isr_timer.c **** #include <CyLib.h>
  21:Generated_Source\PSoC5/isr_timer.c **** #include <isr_timer.h>
  22:Generated_Source\PSoC5/isr_timer.c **** #include "cyapicallbacks.h"
  23:Generated_Source\PSoC5/isr_timer.c **** 
  24:Generated_Source\PSoC5/isr_timer.c **** #if !defined(isr_timer__REMOVED) /* Check for removal by optimization */
  25:Generated_Source\PSoC5/isr_timer.c **** 
  26:Generated_Source\PSoC5/isr_timer.c **** /*******************************************************************************
  27:Generated_Source\PSoC5/isr_timer.c **** *  Place your includes, defines and code here 
  28:Generated_Source\PSoC5/isr_timer.c **** ********************************************************************************/
  29:Generated_Source\PSoC5/isr_timer.c **** /* `#START isr_timer_intc` */
  30:Generated_Source\PSoC5/isr_timer.c **** 
ARM GAS  C:\Users\Fede\AppData\Local\Temp\ccrQaB1j.s 			page 2


  31:Generated_Source\PSoC5/isr_timer.c **** /* `#END` */
  32:Generated_Source\PSoC5/isr_timer.c **** 
  33:Generated_Source\PSoC5/isr_timer.c **** #ifndef CYINT_IRQ_BASE
  34:Generated_Source\PSoC5/isr_timer.c **** #define CYINT_IRQ_BASE      16
  35:Generated_Source\PSoC5/isr_timer.c **** #endif /* CYINT_IRQ_BASE */
  36:Generated_Source\PSoC5/isr_timer.c **** #ifndef CYINT_VECT_TABLE
  37:Generated_Source\PSoC5/isr_timer.c **** #define CYINT_VECT_TABLE    ((cyisraddress **) CYREG_NVIC_VECT_OFFSET)
  38:Generated_Source\PSoC5/isr_timer.c **** #endif /* CYINT_VECT_TABLE */
  39:Generated_Source\PSoC5/isr_timer.c **** 
  40:Generated_Source\PSoC5/isr_timer.c **** /* Declared in startup, used to set unused interrupts to. */
  41:Generated_Source\PSoC5/isr_timer.c **** CY_ISR_PROTO(IntDefaultHandler);
  42:Generated_Source\PSoC5/isr_timer.c **** 
  43:Generated_Source\PSoC5/isr_timer.c **** 
  44:Generated_Source\PSoC5/isr_timer.c **** /*******************************************************************************
  45:Generated_Source\PSoC5/isr_timer.c **** * Function Name: isr_timer_Start
  46:Generated_Source\PSoC5/isr_timer.c **** ********************************************************************************
  47:Generated_Source\PSoC5/isr_timer.c **** *
  48:Generated_Source\PSoC5/isr_timer.c **** * Summary:
  49:Generated_Source\PSoC5/isr_timer.c **** *  Set up the interrupt and enable it. This function disables the interrupt, 
  50:Generated_Source\PSoC5/isr_timer.c **** *  sets the default interrupt vector, sets the priority from the value in the
  51:Generated_Source\PSoC5/isr_timer.c **** *  Design Wide Resources Interrupt Editor, then enables the interrupt to the 
  52:Generated_Source\PSoC5/isr_timer.c **** *  interrupt controller.
  53:Generated_Source\PSoC5/isr_timer.c **** *
  54:Generated_Source\PSoC5/isr_timer.c **** * Parameters:  
  55:Generated_Source\PSoC5/isr_timer.c **** *   None
  56:Generated_Source\PSoC5/isr_timer.c **** *
  57:Generated_Source\PSoC5/isr_timer.c **** * Return:
  58:Generated_Source\PSoC5/isr_timer.c **** *   None
  59:Generated_Source\PSoC5/isr_timer.c **** *
  60:Generated_Source\PSoC5/isr_timer.c **** *******************************************************************************/
  61:Generated_Source\PSoC5/isr_timer.c **** void isr_timer_Start(void)
  62:Generated_Source\PSoC5/isr_timer.c **** {
  63:Generated_Source\PSoC5/isr_timer.c ****     /* For all we know the interrupt is active. */
  64:Generated_Source\PSoC5/isr_timer.c ****     isr_timer_Disable();
  65:Generated_Source\PSoC5/isr_timer.c **** 
  66:Generated_Source\PSoC5/isr_timer.c ****     /* Set the ISR to point to the isr_timer Interrupt. */
  67:Generated_Source\PSoC5/isr_timer.c ****     isr_timer_SetVector(&isr_timer_Interrupt);
  68:Generated_Source\PSoC5/isr_timer.c **** 
  69:Generated_Source\PSoC5/isr_timer.c ****     /* Set the priority. */
  70:Generated_Source\PSoC5/isr_timer.c ****     isr_timer_SetPriority((uint8)isr_timer_INTC_PRIOR_NUMBER);
  71:Generated_Source\PSoC5/isr_timer.c **** 
  72:Generated_Source\PSoC5/isr_timer.c ****     /* Enable it. */
  73:Generated_Source\PSoC5/isr_timer.c ****     isr_timer_Enable();
  74:Generated_Source\PSoC5/isr_timer.c **** }
  75:Generated_Source\PSoC5/isr_timer.c **** 
  76:Generated_Source\PSoC5/isr_timer.c **** 
  77:Generated_Source\PSoC5/isr_timer.c **** /*******************************************************************************
  78:Generated_Source\PSoC5/isr_timer.c **** * Function Name: isr_timer_StartEx
  79:Generated_Source\PSoC5/isr_timer.c **** ********************************************************************************
  80:Generated_Source\PSoC5/isr_timer.c **** *
  81:Generated_Source\PSoC5/isr_timer.c **** * Summary:
  82:Generated_Source\PSoC5/isr_timer.c **** *  Sets up the interrupt and enables it. This function disables the interrupt,
  83:Generated_Source\PSoC5/isr_timer.c **** *  sets the interrupt vector based on the address passed in, sets the priority 
  84:Generated_Source\PSoC5/isr_timer.c **** *  from the value in the Design Wide Resources Interrupt Editor, then enables 
  85:Generated_Source\PSoC5/isr_timer.c **** *  the interrupt to the interrupt controller.
  86:Generated_Source\PSoC5/isr_timer.c **** *  
  87:Generated_Source\PSoC5/isr_timer.c **** *  When defining ISR functions, the CY_ISR and CY_ISR_PROTO macros should be 
ARM GAS  C:\Users\Fede\AppData\Local\Temp\ccrQaB1j.s 			page 3


  88:Generated_Source\PSoC5/isr_timer.c **** *  used to provide consistent definition across compilers:
  89:Generated_Source\PSoC5/isr_timer.c **** *  
  90:Generated_Source\PSoC5/isr_timer.c **** *  Function definition example:
  91:Generated_Source\PSoC5/isr_timer.c **** *   CY_ISR(MyISR)
  92:Generated_Source\PSoC5/isr_timer.c **** *   {
  93:Generated_Source\PSoC5/isr_timer.c **** *   }
  94:Generated_Source\PSoC5/isr_timer.c **** *   Function prototype example:
  95:Generated_Source\PSoC5/isr_timer.c **** *   CY_ISR_PROTO(MyISR);
  96:Generated_Source\PSoC5/isr_timer.c **** *
  97:Generated_Source\PSoC5/isr_timer.c **** * Parameters:  
  98:Generated_Source\PSoC5/isr_timer.c **** *   address: Address of the ISR to set in the interrupt vector table.
  99:Generated_Source\PSoC5/isr_timer.c **** *
 100:Generated_Source\PSoC5/isr_timer.c **** * Return:
 101:Generated_Source\PSoC5/isr_timer.c **** *   None
 102:Generated_Source\PSoC5/isr_timer.c **** *
 103:Generated_Source\PSoC5/isr_timer.c **** *******************************************************************************/
 104:Generated_Source\PSoC5/isr_timer.c **** void isr_timer_StartEx(cyisraddress address)
 105:Generated_Source\PSoC5/isr_timer.c **** {
 106:Generated_Source\PSoC5/isr_timer.c ****     /* For all we know the interrupt is active. */
 107:Generated_Source\PSoC5/isr_timer.c ****     isr_timer_Disable();
 108:Generated_Source\PSoC5/isr_timer.c **** 
 109:Generated_Source\PSoC5/isr_timer.c ****     /* Set the ISR to point to the isr_timer Interrupt. */
 110:Generated_Source\PSoC5/isr_timer.c ****     isr_timer_SetVector(address);
 111:Generated_Source\PSoC5/isr_timer.c **** 
 112:Generated_Source\PSoC5/isr_timer.c ****     /* Set the priority. */
 113:Generated_Source\PSoC5/isr_timer.c ****     isr_timer_SetPriority((uint8)isr_timer_INTC_PRIOR_NUMBER);
 114:Generated_Source\PSoC5/isr_timer.c **** 
 115:Generated_Source\PSoC5/isr_timer.c ****     /* Enable it. */
 116:Generated_Source\PSoC5/isr_timer.c ****     isr_timer_Enable();
 117:Generated_Source\PSoC5/isr_timer.c **** }
 118:Generated_Source\PSoC5/isr_timer.c **** 
 119:Generated_Source\PSoC5/isr_timer.c **** 
 120:Generated_Source\PSoC5/isr_timer.c **** /*******************************************************************************
 121:Generated_Source\PSoC5/isr_timer.c **** * Function Name: isr_timer_Stop
 122:Generated_Source\PSoC5/isr_timer.c **** ********************************************************************************
 123:Generated_Source\PSoC5/isr_timer.c **** *
 124:Generated_Source\PSoC5/isr_timer.c **** * Summary:
 125:Generated_Source\PSoC5/isr_timer.c **** *   Disables and removes the interrupt.
 126:Generated_Source\PSoC5/isr_timer.c **** *
 127:Generated_Source\PSoC5/isr_timer.c **** * Parameters:  
 128:Generated_Source\PSoC5/isr_timer.c **** *   None
 129:Generated_Source\PSoC5/isr_timer.c **** *
 130:Generated_Source\PSoC5/isr_timer.c **** * Return:
 131:Generated_Source\PSoC5/isr_timer.c **** *   None
 132:Generated_Source\PSoC5/isr_timer.c **** *
 133:Generated_Source\PSoC5/isr_timer.c **** *******************************************************************************/
 134:Generated_Source\PSoC5/isr_timer.c **** void isr_timer_Stop(void)
 135:Generated_Source\PSoC5/isr_timer.c **** {
 136:Generated_Source\PSoC5/isr_timer.c ****     /* Disable this interrupt. */
 137:Generated_Source\PSoC5/isr_timer.c ****     isr_timer_Disable();
 138:Generated_Source\PSoC5/isr_timer.c **** 
 139:Generated_Source\PSoC5/isr_timer.c ****     /* Set the ISR to point to the passive one. */
 140:Generated_Source\PSoC5/isr_timer.c ****     isr_timer_SetVector(&IntDefaultHandler);
 141:Generated_Source\PSoC5/isr_timer.c **** }
 142:Generated_Source\PSoC5/isr_timer.c **** 
 143:Generated_Source\PSoC5/isr_timer.c **** 
 144:Generated_Source\PSoC5/isr_timer.c **** /*******************************************************************************
ARM GAS  C:\Users\Fede\AppData\Local\Temp\ccrQaB1j.s 			page 4


 145:Generated_Source\PSoC5/isr_timer.c **** * Function Name: isr_timer_Interrupt
 146:Generated_Source\PSoC5/isr_timer.c **** ********************************************************************************
 147:Generated_Source\PSoC5/isr_timer.c **** *
 148:Generated_Source\PSoC5/isr_timer.c **** * Summary:
 149:Generated_Source\PSoC5/isr_timer.c **** *   The default Interrupt Service Routine for isr_timer.
 150:Generated_Source\PSoC5/isr_timer.c **** *
 151:Generated_Source\PSoC5/isr_timer.c **** *   Add custom code between the coments to keep the next version of this file
 152:Generated_Source\PSoC5/isr_timer.c **** *   from over writting your code.
 153:Generated_Source\PSoC5/isr_timer.c **** *
 154:Generated_Source\PSoC5/isr_timer.c **** * Parameters:  
 155:Generated_Source\PSoC5/isr_timer.c **** *
 156:Generated_Source\PSoC5/isr_timer.c **** * Return:
 157:Generated_Source\PSoC5/isr_timer.c **** *   None
 158:Generated_Source\PSoC5/isr_timer.c **** *
 159:Generated_Source\PSoC5/isr_timer.c **** *******************************************************************************/
 160:Generated_Source\PSoC5/isr_timer.c **** CY_ISR(isr_timer_Interrupt)
 161:Generated_Source\PSoC5/isr_timer.c **** {
  28              		.loc 1 161 0
  29              		.cfi_startproc
  30              		@ args = 0, pretend = 0, frame = 0
  31              		@ frame_needed = 0, uses_anonymous_args = 0
  32 0000 08B5     		push	{r3, lr}
  33              		.cfi_def_cfa_offset 8
  34              		.cfi_offset 3, -8
  35              		.cfi_offset 14, -4
 162:Generated_Source\PSoC5/isr_timer.c ****     #ifdef isr_timer_INTERRUPT_INTERRUPT_CALLBACK
 163:Generated_Source\PSoC5/isr_timer.c ****         isr_timer_Interrupt_InterruptCallback();
  36              		.loc 1 163 0
  37 0002 FFF7FEFF 		bl	isr_timer_Interrupt_InterruptCallback
  38              	.LVL0:
  39 0006 08BD     		pop	{r3, pc}
  40              		.cfi_endproc
  41              	.LFE3:
  42              		.size	isr_timer_Interrupt, .-isr_timer_Interrupt
  43              		.section	.text.isr_timer_SetVector,"ax",%progbits
  44              		.align	2
  45              		.global	isr_timer_SetVector
  46              		.thumb
  47              		.thumb_func
  48              		.type	isr_timer_SetVector, %function
  49              	isr_timer_SetVector:
  50              	.LFB4:
 164:Generated_Source\PSoC5/isr_timer.c ****     #endif /* isr_timer_INTERRUPT_INTERRUPT_CALLBACK */ 
 165:Generated_Source\PSoC5/isr_timer.c **** 
 166:Generated_Source\PSoC5/isr_timer.c ****     /*  Place your Interrupt code here. */
 167:Generated_Source\PSoC5/isr_timer.c ****     /* `#START isr_timer_Interrupt` */
 168:Generated_Source\PSoC5/isr_timer.c **** 
 169:Generated_Source\PSoC5/isr_timer.c ****     /* `#END` */
 170:Generated_Source\PSoC5/isr_timer.c **** }
 171:Generated_Source\PSoC5/isr_timer.c **** 
 172:Generated_Source\PSoC5/isr_timer.c **** 
 173:Generated_Source\PSoC5/isr_timer.c **** /*******************************************************************************
 174:Generated_Source\PSoC5/isr_timer.c **** * Function Name: isr_timer_SetVector
 175:Generated_Source\PSoC5/isr_timer.c **** ********************************************************************************
 176:Generated_Source\PSoC5/isr_timer.c **** *
 177:Generated_Source\PSoC5/isr_timer.c **** * Summary:
 178:Generated_Source\PSoC5/isr_timer.c **** *   Change the ISR vector for the Interrupt. Note calling isr_timer_Start
ARM GAS  C:\Users\Fede\AppData\Local\Temp\ccrQaB1j.s 			page 5


 179:Generated_Source\PSoC5/isr_timer.c **** *   will override any effect this method would have had. To set the vector 
 180:Generated_Source\PSoC5/isr_timer.c **** *   before the component has been started use isr_timer_StartEx instead.
 181:Generated_Source\PSoC5/isr_timer.c **** * 
 182:Generated_Source\PSoC5/isr_timer.c **** *   When defining ISR functions, the CY_ISR and CY_ISR_PROTO macros should be 
 183:Generated_Source\PSoC5/isr_timer.c **** *   used to provide consistent definition across compilers:
 184:Generated_Source\PSoC5/isr_timer.c **** *
 185:Generated_Source\PSoC5/isr_timer.c **** *   Function definition example:
 186:Generated_Source\PSoC5/isr_timer.c **** *   CY_ISR(MyISR)
 187:Generated_Source\PSoC5/isr_timer.c **** *   {
 188:Generated_Source\PSoC5/isr_timer.c **** *   }
 189:Generated_Source\PSoC5/isr_timer.c **** *
 190:Generated_Source\PSoC5/isr_timer.c **** *   Function prototype example:
 191:Generated_Source\PSoC5/isr_timer.c **** *     CY_ISR_PROTO(MyISR);
 192:Generated_Source\PSoC5/isr_timer.c **** *
 193:Generated_Source\PSoC5/isr_timer.c **** * Parameters:
 194:Generated_Source\PSoC5/isr_timer.c **** *   address: Address of the ISR to set in the interrupt vector table.
 195:Generated_Source\PSoC5/isr_timer.c **** *
 196:Generated_Source\PSoC5/isr_timer.c **** * Return:
 197:Generated_Source\PSoC5/isr_timer.c **** *   None
 198:Generated_Source\PSoC5/isr_timer.c **** *
 199:Generated_Source\PSoC5/isr_timer.c **** *******************************************************************************/
 200:Generated_Source\PSoC5/isr_timer.c **** void isr_timer_SetVector(cyisraddress address)
 201:Generated_Source\PSoC5/isr_timer.c **** {
  51              		.loc 1 201 0
  52              		.cfi_startproc
  53              		@ args = 0, pretend = 0, frame = 0
  54              		@ frame_needed = 0, uses_anonymous_args = 0
  55              		@ link register save eliminated.
  56              	.LVL1:
 202:Generated_Source\PSoC5/isr_timer.c ****     cyisraddress * ramVectorTable;
 203:Generated_Source\PSoC5/isr_timer.c **** 
 204:Generated_Source\PSoC5/isr_timer.c ****     ramVectorTable = (cyisraddress *) *CYINT_VECT_TABLE;
  57              		.loc 1 204 0
  58 0000 014B     		ldr	r3, .L4
  59 0002 1B68     		ldr	r3, [r3]
  60              	.LVL2:
 205:Generated_Source\PSoC5/isr_timer.c **** 
 206:Generated_Source\PSoC5/isr_timer.c ****     ramVectorTable[CYINT_IRQ_BASE + (uint32)isr_timer__INTC_NUMBER] = address;
  61              		.loc 1 206 0
  62 0004 9864     		str	r0, [r3, #72]
  63 0006 7047     		bx	lr
  64              	.L5:
  65              		.align	2
  66              	.L4:
  67 0008 08ED00E0 		.word	-536810232
  68              		.cfi_endproc
  69              	.LFE4:
  70              		.size	isr_timer_SetVector, .-isr_timer_SetVector
  71              		.section	.text.isr_timer_GetVector,"ax",%progbits
  72              		.align	2
  73              		.global	isr_timer_GetVector
  74              		.thumb
  75              		.thumb_func
  76              		.type	isr_timer_GetVector, %function
  77              	isr_timer_GetVector:
  78              	.LFB5:
 207:Generated_Source\PSoC5/isr_timer.c **** }
ARM GAS  C:\Users\Fede\AppData\Local\Temp\ccrQaB1j.s 			page 6


 208:Generated_Source\PSoC5/isr_timer.c **** 
 209:Generated_Source\PSoC5/isr_timer.c **** 
 210:Generated_Source\PSoC5/isr_timer.c **** /*******************************************************************************
 211:Generated_Source\PSoC5/isr_timer.c **** * Function Name: isr_timer_GetVector
 212:Generated_Source\PSoC5/isr_timer.c **** ********************************************************************************
 213:Generated_Source\PSoC5/isr_timer.c **** *
 214:Generated_Source\PSoC5/isr_timer.c **** * Summary:
 215:Generated_Source\PSoC5/isr_timer.c **** *   Gets the "address" of the current ISR vector for the Interrupt.
 216:Generated_Source\PSoC5/isr_timer.c **** *
 217:Generated_Source\PSoC5/isr_timer.c **** * Parameters:
 218:Generated_Source\PSoC5/isr_timer.c **** *   None
 219:Generated_Source\PSoC5/isr_timer.c **** *
 220:Generated_Source\PSoC5/isr_timer.c **** * Return:
 221:Generated_Source\PSoC5/isr_timer.c **** *   Address of the ISR in the interrupt vector table.
 222:Generated_Source\PSoC5/isr_timer.c **** *
 223:Generated_Source\PSoC5/isr_timer.c **** *******************************************************************************/
 224:Generated_Source\PSoC5/isr_timer.c **** cyisraddress isr_timer_GetVector(void)
 225:Generated_Source\PSoC5/isr_timer.c **** {
  79              		.loc 1 225 0
  80              		.cfi_startproc
  81              		@ args = 0, pretend = 0, frame = 0
  82              		@ frame_needed = 0, uses_anonymous_args = 0
  83              		@ link register save eliminated.
 226:Generated_Source\PSoC5/isr_timer.c ****     cyisraddress * ramVectorTable;
 227:Generated_Source\PSoC5/isr_timer.c **** 
 228:Generated_Source\PSoC5/isr_timer.c ****     ramVectorTable = (cyisraddress *) *CYINT_VECT_TABLE;
  84              		.loc 1 228 0
  85 0000 014B     		ldr	r3, .L7
  86 0002 1B68     		ldr	r3, [r3]
  87              	.LVL3:
 229:Generated_Source\PSoC5/isr_timer.c **** 
 230:Generated_Source\PSoC5/isr_timer.c ****     return ramVectorTable[CYINT_IRQ_BASE + (uint32)isr_timer__INTC_NUMBER];
 231:Generated_Source\PSoC5/isr_timer.c **** }
  88              		.loc 1 231 0
  89 0004 986C     		ldr	r0, [r3, #72]
  90 0006 7047     		bx	lr
  91              	.L8:
  92              		.align	2
  93              	.L7:
  94 0008 08ED00E0 		.word	-536810232
  95              		.cfi_endproc
  96              	.LFE5:
  97              		.size	isr_timer_GetVector, .-isr_timer_GetVector
  98              		.section	.text.isr_timer_SetPriority,"ax",%progbits
  99              		.align	2
 100              		.global	isr_timer_SetPriority
 101              		.thumb
 102              		.thumb_func
 103              		.type	isr_timer_SetPriority, %function
 104              	isr_timer_SetPriority:
 105              	.LFB6:
 232:Generated_Source\PSoC5/isr_timer.c **** 
 233:Generated_Source\PSoC5/isr_timer.c **** 
 234:Generated_Source\PSoC5/isr_timer.c **** /*******************************************************************************
 235:Generated_Source\PSoC5/isr_timer.c **** * Function Name: isr_timer_SetPriority
 236:Generated_Source\PSoC5/isr_timer.c **** ********************************************************************************
 237:Generated_Source\PSoC5/isr_timer.c **** *
ARM GAS  C:\Users\Fede\AppData\Local\Temp\ccrQaB1j.s 			page 7


 238:Generated_Source\PSoC5/isr_timer.c **** * Summary:
 239:Generated_Source\PSoC5/isr_timer.c **** *   Sets the Priority of the Interrupt. 
 240:Generated_Source\PSoC5/isr_timer.c **** *
 241:Generated_Source\PSoC5/isr_timer.c **** *   Note calling isr_timer_Start or isr_timer_StartEx will 
 242:Generated_Source\PSoC5/isr_timer.c **** *   override any effect this API would have had. This API should only be called
 243:Generated_Source\PSoC5/isr_timer.c **** *   after isr_timer_Start or isr_timer_StartEx has been called. 
 244:Generated_Source\PSoC5/isr_timer.c **** *   To set the initial priority for the component, use the Design-Wide Resources
 245:Generated_Source\PSoC5/isr_timer.c **** *   Interrupt Editor.
 246:Generated_Source\PSoC5/isr_timer.c **** *
 247:Generated_Source\PSoC5/isr_timer.c **** *   Note This API has no effect on Non-maskable interrupt NMI).
 248:Generated_Source\PSoC5/isr_timer.c **** *
 249:Generated_Source\PSoC5/isr_timer.c **** * Parameters:
 250:Generated_Source\PSoC5/isr_timer.c **** *   priority: Priority of the interrupt, 0 being the highest priority
 251:Generated_Source\PSoC5/isr_timer.c **** *             PSoC 3 and PSoC 5LP: Priority is from 0 to 7.
 252:Generated_Source\PSoC5/isr_timer.c **** *             PSoC 4: Priority is from 0 to 3.
 253:Generated_Source\PSoC5/isr_timer.c **** *
 254:Generated_Source\PSoC5/isr_timer.c **** * Return:
 255:Generated_Source\PSoC5/isr_timer.c **** *   None
 256:Generated_Source\PSoC5/isr_timer.c **** *
 257:Generated_Source\PSoC5/isr_timer.c **** *******************************************************************************/
 258:Generated_Source\PSoC5/isr_timer.c **** void isr_timer_SetPriority(uint8 priority)
 259:Generated_Source\PSoC5/isr_timer.c **** {
 106              		.loc 1 259 0
 107              		.cfi_startproc
 108              		@ args = 0, pretend = 0, frame = 0
 109              		@ frame_needed = 0, uses_anonymous_args = 0
 110              		@ link register save eliminated.
 111              	.LVL4:
 260:Generated_Source\PSoC5/isr_timer.c ****     *isr_timer_INTC_PRIOR = priority << 5;
 112              		.loc 1 260 0
 113 0000 4001     		lsls	r0, r0, #5
 114              	.LVL5:
 115 0002 C0B2     		uxtb	r0, r0
 116 0004 014B     		ldr	r3, .L10
 117 0006 1870     		strb	r0, [r3]
 118 0008 7047     		bx	lr
 119              	.L11:
 120 000a 00BF     		.align	2
 121              	.L10:
 122 000c 02E400E0 		.word	-536812542
 123              		.cfi_endproc
 124              	.LFE6:
 125              		.size	isr_timer_SetPriority, .-isr_timer_SetPriority
 126              		.section	.text.isr_timer_GetPriority,"ax",%progbits
 127              		.align	2
 128              		.global	isr_timer_GetPriority
 129              		.thumb
 130              		.thumb_func
 131              		.type	isr_timer_GetPriority, %function
 132              	isr_timer_GetPriority:
 133              	.LFB7:
 261:Generated_Source\PSoC5/isr_timer.c **** }
 262:Generated_Source\PSoC5/isr_timer.c **** 
 263:Generated_Source\PSoC5/isr_timer.c **** 
 264:Generated_Source\PSoC5/isr_timer.c **** /*******************************************************************************
 265:Generated_Source\PSoC5/isr_timer.c **** * Function Name: isr_timer_GetPriority
 266:Generated_Source\PSoC5/isr_timer.c **** ********************************************************************************
ARM GAS  C:\Users\Fede\AppData\Local\Temp\ccrQaB1j.s 			page 8


 267:Generated_Source\PSoC5/isr_timer.c **** *
 268:Generated_Source\PSoC5/isr_timer.c **** * Summary:
 269:Generated_Source\PSoC5/isr_timer.c **** *   Gets the Priority of the Interrupt.
 270:Generated_Source\PSoC5/isr_timer.c **** *
 271:Generated_Source\PSoC5/isr_timer.c **** * Parameters:
 272:Generated_Source\PSoC5/isr_timer.c **** *   None
 273:Generated_Source\PSoC5/isr_timer.c **** *
 274:Generated_Source\PSoC5/isr_timer.c **** * Return:
 275:Generated_Source\PSoC5/isr_timer.c **** *   Priority of the interrupt, 0 being the highest priority
 276:Generated_Source\PSoC5/isr_timer.c **** *    PSoC 3 and PSoC 5LP: Priority is from 0 to 7.
 277:Generated_Source\PSoC5/isr_timer.c **** *    PSoC 4: Priority is from 0 to 3.
 278:Generated_Source\PSoC5/isr_timer.c **** *
 279:Generated_Source\PSoC5/isr_timer.c **** *******************************************************************************/
 280:Generated_Source\PSoC5/isr_timer.c **** uint8 isr_timer_GetPriority(void)
 281:Generated_Source\PSoC5/isr_timer.c **** {
 134              		.loc 1 281 0
 135              		.cfi_startproc
 136              		@ args = 0, pretend = 0, frame = 0
 137              		@ frame_needed = 0, uses_anonymous_args = 0
 138              		@ link register save eliminated.
 282:Generated_Source\PSoC5/isr_timer.c ****     uint8 priority;
 283:Generated_Source\PSoC5/isr_timer.c **** 
 284:Generated_Source\PSoC5/isr_timer.c **** 
 285:Generated_Source\PSoC5/isr_timer.c ****     priority = *isr_timer_INTC_PRIOR >> 5;
 139              		.loc 1 285 0
 140 0000 014B     		ldr	r3, .L13
 141 0002 1878     		ldrb	r0, [r3]	@ zero_extendqisi2
 142              	.LVL6:
 286:Generated_Source\PSoC5/isr_timer.c **** 
 287:Generated_Source\PSoC5/isr_timer.c ****     return priority;
 288:Generated_Source\PSoC5/isr_timer.c **** }
 143              		.loc 1 288 0
 144 0004 4009     		lsrs	r0, r0, #5
 145              	.LVL7:
 146 0006 7047     		bx	lr
 147              	.L14:
 148              		.align	2
 149              	.L13:
 150 0008 02E400E0 		.word	-536812542
 151              		.cfi_endproc
 152              	.LFE7:
 153              		.size	isr_timer_GetPriority, .-isr_timer_GetPriority
 154              		.section	.text.isr_timer_Enable,"ax",%progbits
 155              		.align	2
 156              		.global	isr_timer_Enable
 157              		.thumb
 158              		.thumb_func
 159              		.type	isr_timer_Enable, %function
 160              	isr_timer_Enable:
 161              	.LFB8:
 289:Generated_Source\PSoC5/isr_timer.c **** 
 290:Generated_Source\PSoC5/isr_timer.c **** 
 291:Generated_Source\PSoC5/isr_timer.c **** /*******************************************************************************
 292:Generated_Source\PSoC5/isr_timer.c **** * Function Name: isr_timer_Enable
 293:Generated_Source\PSoC5/isr_timer.c **** ********************************************************************************
 294:Generated_Source\PSoC5/isr_timer.c **** *
 295:Generated_Source\PSoC5/isr_timer.c **** * Summary:
ARM GAS  C:\Users\Fede\AppData\Local\Temp\ccrQaB1j.s 			page 9


 296:Generated_Source\PSoC5/isr_timer.c **** *   Enables the interrupt to the interrupt controller. Do not call this function
 297:Generated_Source\PSoC5/isr_timer.c **** *   unless ISR_Start() has been called or the functionality of the ISR_Start() 
 298:Generated_Source\PSoC5/isr_timer.c **** *   function, which sets the vector and the priority, has been called.
 299:Generated_Source\PSoC5/isr_timer.c **** *
 300:Generated_Source\PSoC5/isr_timer.c **** * Parameters:
 301:Generated_Source\PSoC5/isr_timer.c **** *   None
 302:Generated_Source\PSoC5/isr_timer.c **** *
 303:Generated_Source\PSoC5/isr_timer.c **** * Return:
 304:Generated_Source\PSoC5/isr_timer.c **** *   None
 305:Generated_Source\PSoC5/isr_timer.c **** *
 306:Generated_Source\PSoC5/isr_timer.c **** *******************************************************************************/
 307:Generated_Source\PSoC5/isr_timer.c **** void isr_timer_Enable(void)
 308:Generated_Source\PSoC5/isr_timer.c **** {
 162              		.loc 1 308 0
 163              		.cfi_startproc
 164              		@ args = 0, pretend = 0, frame = 0
 165              		@ frame_needed = 0, uses_anonymous_args = 0
 166              		@ link register save eliminated.
 309:Generated_Source\PSoC5/isr_timer.c ****     /* Enable the general interrupt. */
 310:Generated_Source\PSoC5/isr_timer.c ****     *isr_timer_INTC_SET_EN = isr_timer__INTC_MASK;
 167              		.loc 1 310 0
 168 0000 0422     		movs	r2, #4
 169 0002 014B     		ldr	r3, .L16
 170 0004 1A60     		str	r2, [r3]
 171 0006 7047     		bx	lr
 172              	.L17:
 173              		.align	2
 174              	.L16:
 175 0008 00E100E0 		.word	-536813312
 176              		.cfi_endproc
 177              	.LFE8:
 178              		.size	isr_timer_Enable, .-isr_timer_Enable
 179              		.section	.text.isr_timer_GetState,"ax",%progbits
 180              		.align	2
 181              		.global	isr_timer_GetState
 182              		.thumb
 183              		.thumb_func
 184              		.type	isr_timer_GetState, %function
 185              	isr_timer_GetState:
 186              	.LFB9:
 311:Generated_Source\PSoC5/isr_timer.c **** }
 312:Generated_Source\PSoC5/isr_timer.c **** 
 313:Generated_Source\PSoC5/isr_timer.c **** 
 314:Generated_Source\PSoC5/isr_timer.c **** /*******************************************************************************
 315:Generated_Source\PSoC5/isr_timer.c **** * Function Name: isr_timer_GetState
 316:Generated_Source\PSoC5/isr_timer.c **** ********************************************************************************
 317:Generated_Source\PSoC5/isr_timer.c **** *
 318:Generated_Source\PSoC5/isr_timer.c **** * Summary:
 319:Generated_Source\PSoC5/isr_timer.c **** *   Gets the state (enabled, disabled) of the Interrupt.
 320:Generated_Source\PSoC5/isr_timer.c **** *
 321:Generated_Source\PSoC5/isr_timer.c **** * Parameters:
 322:Generated_Source\PSoC5/isr_timer.c **** *   None
 323:Generated_Source\PSoC5/isr_timer.c **** *
 324:Generated_Source\PSoC5/isr_timer.c **** * Return:
 325:Generated_Source\PSoC5/isr_timer.c **** *   1 if enabled, 0 if disabled.
 326:Generated_Source\PSoC5/isr_timer.c **** *
 327:Generated_Source\PSoC5/isr_timer.c **** *******************************************************************************/
ARM GAS  C:\Users\Fede\AppData\Local\Temp\ccrQaB1j.s 			page 10


 328:Generated_Source\PSoC5/isr_timer.c **** uint8 isr_timer_GetState(void)
 329:Generated_Source\PSoC5/isr_timer.c **** {
 187              		.loc 1 329 0
 188              		.cfi_startproc
 189              		@ args = 0, pretend = 0, frame = 0
 190              		@ frame_needed = 0, uses_anonymous_args = 0
 191              		@ link register save eliminated.
 330:Generated_Source\PSoC5/isr_timer.c ****     /* Get the state of the general interrupt. */
 331:Generated_Source\PSoC5/isr_timer.c ****     return ((*isr_timer_INTC_SET_EN & (uint32)isr_timer__INTC_MASK) != 0u) ? 1u:0u;
 192              		.loc 1 331 0
 193 0000 044B     		ldr	r3, .L21
 194 0002 1B68     		ldr	r3, [r3]
 195 0004 13F0040F 		tst	r3, #4
 196 0008 01D0     		beq	.L20
 197 000a 0120     		movs	r0, #1
 198 000c 7047     		bx	lr
 199              	.L20:
 200 000e 0020     		movs	r0, #0
 332:Generated_Source\PSoC5/isr_timer.c **** }
 201              		.loc 1 332 0
 202 0010 7047     		bx	lr
 203              	.L22:
 204 0012 00BF     		.align	2
 205              	.L21:
 206 0014 00E100E0 		.word	-536813312
 207              		.cfi_endproc
 208              	.LFE9:
 209              		.size	isr_timer_GetState, .-isr_timer_GetState
 210              		.section	.text.isr_timer_Disable,"ax",%progbits
 211              		.align	2
 212              		.global	isr_timer_Disable
 213              		.thumb
 214              		.thumb_func
 215              		.type	isr_timer_Disable, %function
 216              	isr_timer_Disable:
 217              	.LFB10:
 333:Generated_Source\PSoC5/isr_timer.c **** 
 334:Generated_Source\PSoC5/isr_timer.c **** 
 335:Generated_Source\PSoC5/isr_timer.c **** /*******************************************************************************
 336:Generated_Source\PSoC5/isr_timer.c **** * Function Name: isr_timer_Disable
 337:Generated_Source\PSoC5/isr_timer.c **** ********************************************************************************
 338:Generated_Source\PSoC5/isr_timer.c **** *
 339:Generated_Source\PSoC5/isr_timer.c **** * Summary:
 340:Generated_Source\PSoC5/isr_timer.c **** *   Disables the Interrupt in the interrupt controller.
 341:Generated_Source\PSoC5/isr_timer.c **** *
 342:Generated_Source\PSoC5/isr_timer.c **** * Parameters:
 343:Generated_Source\PSoC5/isr_timer.c **** *   None
 344:Generated_Source\PSoC5/isr_timer.c **** *
 345:Generated_Source\PSoC5/isr_timer.c **** * Return:
 346:Generated_Source\PSoC5/isr_timer.c **** *   None
 347:Generated_Source\PSoC5/isr_timer.c **** *
 348:Generated_Source\PSoC5/isr_timer.c **** *******************************************************************************/
 349:Generated_Source\PSoC5/isr_timer.c **** void isr_timer_Disable(void)
 350:Generated_Source\PSoC5/isr_timer.c **** {
 218              		.loc 1 350 0
 219              		.cfi_startproc
 220              		@ args = 0, pretend = 0, frame = 0
ARM GAS  C:\Users\Fede\AppData\Local\Temp\ccrQaB1j.s 			page 11


 221              		@ frame_needed = 0, uses_anonymous_args = 0
 222              		@ link register save eliminated.
 351:Generated_Source\PSoC5/isr_timer.c ****     /* Disable the general interrupt. */
 352:Generated_Source\PSoC5/isr_timer.c ****     *isr_timer_INTC_CLR_EN = isr_timer__INTC_MASK;
 223              		.loc 1 352 0
 224 0000 0422     		movs	r2, #4
 225 0002 014B     		ldr	r3, .L24
 226 0004 1A60     		str	r2, [r3]
 227 0006 7047     		bx	lr
 228              	.L25:
 229              		.align	2
 230              	.L24:
 231 0008 80E100E0 		.word	-536813184
 232              		.cfi_endproc
 233              	.LFE10:
 234              		.size	isr_timer_Disable, .-isr_timer_Disable
 235              		.section	.text.isr_timer_Start,"ax",%progbits
 236              		.align	2
 237              		.global	isr_timer_Start
 238              		.thumb
 239              		.thumb_func
 240              		.type	isr_timer_Start, %function
 241              	isr_timer_Start:
 242              	.LFB0:
  62:Generated_Source\PSoC5/isr_timer.c ****     /* For all we know the interrupt is active. */
 243              		.loc 1 62 0
 244              		.cfi_startproc
 245              		@ args = 0, pretend = 0, frame = 0
 246              		@ frame_needed = 0, uses_anonymous_args = 0
 247 0000 08B5     		push	{r3, lr}
 248              		.cfi_def_cfa_offset 8
 249              		.cfi_offset 3, -8
 250              		.cfi_offset 14, -4
  64:Generated_Source\PSoC5/isr_timer.c **** 
 251              		.loc 1 64 0
 252 0002 FFF7FEFF 		bl	isr_timer_Disable
 253              	.LVL8:
  67:Generated_Source\PSoC5/isr_timer.c **** 
 254              		.loc 1 67 0
 255 0006 0448     		ldr	r0, .L28
 256 0008 FFF7FEFF 		bl	isr_timer_SetVector
 257              	.LVL9:
  70:Generated_Source\PSoC5/isr_timer.c **** 
 258              		.loc 1 70 0
 259 000c 0720     		movs	r0, #7
 260 000e FFF7FEFF 		bl	isr_timer_SetPriority
 261              	.LVL10:
  73:Generated_Source\PSoC5/isr_timer.c **** }
 262              		.loc 1 73 0
 263 0012 FFF7FEFF 		bl	isr_timer_Enable
 264              	.LVL11:
 265 0016 08BD     		pop	{r3, pc}
 266              	.L29:
 267              		.align	2
 268              	.L28:
 269 0018 00000000 		.word	isr_timer_Interrupt
 270              		.cfi_endproc
ARM GAS  C:\Users\Fede\AppData\Local\Temp\ccrQaB1j.s 			page 12


 271              	.LFE0:
 272              		.size	isr_timer_Start, .-isr_timer_Start
 273              		.section	.text.isr_timer_StartEx,"ax",%progbits
 274              		.align	2
 275              		.global	isr_timer_StartEx
 276              		.thumb
 277              		.thumb_func
 278              		.type	isr_timer_StartEx, %function
 279              	isr_timer_StartEx:
 280              	.LFB1:
 105:Generated_Source\PSoC5/isr_timer.c ****     /* For all we know the interrupt is active. */
 281              		.loc 1 105 0
 282              		.cfi_startproc
 283              		@ args = 0, pretend = 0, frame = 0
 284              		@ frame_needed = 0, uses_anonymous_args = 0
 285              	.LVL12:
 286 0000 10B5     		push	{r4, lr}
 287              		.cfi_def_cfa_offset 8
 288              		.cfi_offset 4, -8
 289              		.cfi_offset 14, -4
 290 0002 0446     		mov	r4, r0
 107:Generated_Source\PSoC5/isr_timer.c **** 
 291              		.loc 1 107 0
 292 0004 FFF7FEFF 		bl	isr_timer_Disable
 293              	.LVL13:
 110:Generated_Source\PSoC5/isr_timer.c **** 
 294              		.loc 1 110 0
 295 0008 2046     		mov	r0, r4
 296 000a FFF7FEFF 		bl	isr_timer_SetVector
 297              	.LVL14:
 113:Generated_Source\PSoC5/isr_timer.c **** 
 298              		.loc 1 113 0
 299 000e 0720     		movs	r0, #7
 300 0010 FFF7FEFF 		bl	isr_timer_SetPriority
 301              	.LVL15:
 116:Generated_Source\PSoC5/isr_timer.c **** }
 302              		.loc 1 116 0
 303 0014 FFF7FEFF 		bl	isr_timer_Enable
 304              	.LVL16:
 305 0018 10BD     		pop	{r4, pc}
 306              		.cfi_endproc
 307              	.LFE1:
 308              		.size	isr_timer_StartEx, .-isr_timer_StartEx
 309 001a 00BF     		.section	.text.isr_timer_Stop,"ax",%progbits
 310              		.align	2
 311              		.global	isr_timer_Stop
 312              		.thumb
 313              		.thumb_func
 314              		.type	isr_timer_Stop, %function
 315              	isr_timer_Stop:
 316              	.LFB2:
 135:Generated_Source\PSoC5/isr_timer.c ****     /* Disable this interrupt. */
 317              		.loc 1 135 0
 318              		.cfi_startproc
 319              		@ args = 0, pretend = 0, frame = 0
 320              		@ frame_needed = 0, uses_anonymous_args = 0
 321 0000 08B5     		push	{r3, lr}
ARM GAS  C:\Users\Fede\AppData\Local\Temp\ccrQaB1j.s 			page 13


 322              		.cfi_def_cfa_offset 8
 323              		.cfi_offset 3, -8
 324              		.cfi_offset 14, -4
 137:Generated_Source\PSoC5/isr_timer.c **** 
 325              		.loc 1 137 0
 326 0002 FFF7FEFF 		bl	isr_timer_Disable
 327              	.LVL17:
 140:Generated_Source\PSoC5/isr_timer.c **** }
 328              		.loc 1 140 0
 329 0006 0248     		ldr	r0, .L34
 330 0008 FFF7FEFF 		bl	isr_timer_SetVector
 331              	.LVL18:
 332 000c 08BD     		pop	{r3, pc}
 333              	.L35:
 334 000e 00BF     		.align	2
 335              	.L34:
 336 0010 00000000 		.word	IntDefaultHandler
 337              		.cfi_endproc
 338              	.LFE2:
 339              		.size	isr_timer_Stop, .-isr_timer_Stop
 340              		.section	.text.isr_timer_SetPending,"ax",%progbits
 341              		.align	2
 342              		.global	isr_timer_SetPending
 343              		.thumb
 344              		.thumb_func
 345              		.type	isr_timer_SetPending, %function
 346              	isr_timer_SetPending:
 347              	.LFB11:
 353:Generated_Source\PSoC5/isr_timer.c **** }
 354:Generated_Source\PSoC5/isr_timer.c **** 
 355:Generated_Source\PSoC5/isr_timer.c **** 
 356:Generated_Source\PSoC5/isr_timer.c **** /*******************************************************************************
 357:Generated_Source\PSoC5/isr_timer.c **** * Function Name: isr_timer_SetPending
 358:Generated_Source\PSoC5/isr_timer.c **** ********************************************************************************
 359:Generated_Source\PSoC5/isr_timer.c **** *
 360:Generated_Source\PSoC5/isr_timer.c **** * Summary:
 361:Generated_Source\PSoC5/isr_timer.c **** *   Causes the Interrupt to enter the pending state, a software method of
 362:Generated_Source\PSoC5/isr_timer.c **** *   generating the interrupt.
 363:Generated_Source\PSoC5/isr_timer.c **** *
 364:Generated_Source\PSoC5/isr_timer.c **** * Parameters:
 365:Generated_Source\PSoC5/isr_timer.c **** *   None
 366:Generated_Source\PSoC5/isr_timer.c **** *
 367:Generated_Source\PSoC5/isr_timer.c **** * Return:
 368:Generated_Source\PSoC5/isr_timer.c **** *   None
 369:Generated_Source\PSoC5/isr_timer.c **** *
 370:Generated_Source\PSoC5/isr_timer.c **** * Side Effects:
 371:Generated_Source\PSoC5/isr_timer.c **** *   If interrupts are enabled and the interrupt is set up properly, the ISR is
 372:Generated_Source\PSoC5/isr_timer.c **** *   entered (depending on the priority of this interrupt and other pending 
 373:Generated_Source\PSoC5/isr_timer.c **** *   interrupts).
 374:Generated_Source\PSoC5/isr_timer.c **** *
 375:Generated_Source\PSoC5/isr_timer.c **** *******************************************************************************/
 376:Generated_Source\PSoC5/isr_timer.c **** void isr_timer_SetPending(void)
 377:Generated_Source\PSoC5/isr_timer.c **** {
 348              		.loc 1 377 0
 349              		.cfi_startproc
 350              		@ args = 0, pretend = 0, frame = 0
 351              		@ frame_needed = 0, uses_anonymous_args = 0
ARM GAS  C:\Users\Fede\AppData\Local\Temp\ccrQaB1j.s 			page 14


 352              		@ link register save eliminated.
 378:Generated_Source\PSoC5/isr_timer.c ****     *isr_timer_INTC_SET_PD = isr_timer__INTC_MASK;
 353              		.loc 1 378 0
 354 0000 0422     		movs	r2, #4
 355 0002 014B     		ldr	r3, .L37
 356 0004 1A60     		str	r2, [r3]
 357 0006 7047     		bx	lr
 358              	.L38:
 359              		.align	2
 360              	.L37:
 361 0008 00E200E0 		.word	-536813056
 362              		.cfi_endproc
 363              	.LFE11:
 364              		.size	isr_timer_SetPending, .-isr_timer_SetPending
 365              		.section	.text.isr_timer_ClearPending,"ax",%progbits
 366              		.align	2
 367              		.global	isr_timer_ClearPending
 368              		.thumb
 369              		.thumb_func
 370              		.type	isr_timer_ClearPending, %function
 371              	isr_timer_ClearPending:
 372              	.LFB12:
 379:Generated_Source\PSoC5/isr_timer.c **** }
 380:Generated_Source\PSoC5/isr_timer.c **** 
 381:Generated_Source\PSoC5/isr_timer.c **** 
 382:Generated_Source\PSoC5/isr_timer.c **** /*******************************************************************************
 383:Generated_Source\PSoC5/isr_timer.c **** * Function Name: isr_timer_ClearPending
 384:Generated_Source\PSoC5/isr_timer.c **** ********************************************************************************
 385:Generated_Source\PSoC5/isr_timer.c **** *
 386:Generated_Source\PSoC5/isr_timer.c **** * Summary:
 387:Generated_Source\PSoC5/isr_timer.c **** *   Clears a pending interrupt in the interrupt controller.
 388:Generated_Source\PSoC5/isr_timer.c **** *
 389:Generated_Source\PSoC5/isr_timer.c **** *   Note Some interrupt sources are clear-on-read and require the block 
 390:Generated_Source\PSoC5/isr_timer.c **** *   interrupt/status register to be read/cleared with the appropriate block API 
 391:Generated_Source\PSoC5/isr_timer.c **** *   (GPIO, UART, and so on). Otherwise the ISR will continue to remain in 
 392:Generated_Source\PSoC5/isr_timer.c **** *   pending state even though the interrupt itself is cleared using this API.
 393:Generated_Source\PSoC5/isr_timer.c **** *
 394:Generated_Source\PSoC5/isr_timer.c **** * Parameters:
 395:Generated_Source\PSoC5/isr_timer.c **** *   None
 396:Generated_Source\PSoC5/isr_timer.c **** *
 397:Generated_Source\PSoC5/isr_timer.c **** * Return:
 398:Generated_Source\PSoC5/isr_timer.c **** *   None
 399:Generated_Source\PSoC5/isr_timer.c **** *
 400:Generated_Source\PSoC5/isr_timer.c **** *******************************************************************************/
 401:Generated_Source\PSoC5/isr_timer.c **** void isr_timer_ClearPending(void)
 402:Generated_Source\PSoC5/isr_timer.c **** {
 373              		.loc 1 402 0
 374              		.cfi_startproc
 375              		@ args = 0, pretend = 0, frame = 0
 376              		@ frame_needed = 0, uses_anonymous_args = 0
 377              		@ link register save eliminated.
 403:Generated_Source\PSoC5/isr_timer.c ****     *isr_timer_INTC_CLR_PD = isr_timer__INTC_MASK;
 378              		.loc 1 403 0
 379 0000 0422     		movs	r2, #4
 380 0002 014B     		ldr	r3, .L40
 381 0004 1A60     		str	r2, [r3]
 382 0006 7047     		bx	lr
ARM GAS  C:\Users\Fede\AppData\Local\Temp\ccrQaB1j.s 			page 15


 383              	.L41:
 384              		.align	2
 385              	.L40:
 386 0008 80E200E0 		.word	-536812928
 387              		.cfi_endproc
 388              	.LFE12:
 389              		.size	isr_timer_ClearPending, .-isr_timer_ClearPending
 390              		.text
 391              	.Letext0:
 392              		.file 2 "Generated_Source\\PSoC5/cytypes.h"
 393              		.file 3 "./cyapicallbacks.h"