ARM GAS  C:\Users\Fede\AppData\Local\Temp\ccsbcQCm.s 			page 1


   1              		.syntax unified
   2              		.cpu cortex-m3
   3              		.fpu softvfp
   4              		.eabi_attribute 20, 1
   5              		.eabi_attribute 21, 1
   6              		.eabi_attribute 23, 3
   7              		.eabi_attribute 24, 1
   8              		.eabi_attribute 25, 1
   9              		.eabi_attribute 26, 1
  10              		.eabi_attribute 30, 1
  11              		.eabi_attribute 34, 1
  12              		.eabi_attribute 18, 4
  13              		.thumb
  14              		.syntax unified
  15              		.file	"main.c"
  16              		.text
  17              	.Ltext0:
  18              		.cfi_sections	.debug_frame
  19              		.section	.text.setNotes,"ax",%progbits
  20              		.align	2
  21              		.global	setNotes
  22              		.thumb
  23              		.thumb_func
  24              		.type	setNotes, %function
  25              	setNotes:
  26              	.LFB63:
  27              		.file 1 "main.c"
   1:main.c        **** #include "project.h"
   2:main.c        **** 
   3:main.c        **** uint8 readed;
   4:main.c        **** uint8 change;
   5:main.c        **** uint8 tenthSecond;
   6:main.c        **** uint8 oneSecond;
   7:main.c        **** uint16 oldPeriod;
   8:main.c        **** static uint8 oneSecondCount = 0U;
   9:main.c        **** char msg[40];
  10:main.c        **** char input;
  11:main.c        **** uint8 selectedNote = 0;
  12:main.c        **** uint8 selectedNoteRange = 2;
  13:main.c        **** 
  14:main.c        **** const unsigned long frq = 24000000;
  15:main.c        **** const unsigned short sampling = 20;
  16:main.c        **** unsigned long cycle;
  17:main.c        **** 
  18:main.c        **** //------------------------ NOTES ----------------------
  19:main.c        **** unsigned int n1, n2, n3, n4, n5, n6, n7, n8;
  20:main.c        **** unsigned int l1, l2, l3, l4, l5, l6, l7, l8;
  21:main.c        **** unsigned int d1, d2, d3, d4, d5, d6, d7, d8;
  22:main.c        **** 
  23:main.c        **** void setNotes() {
  28              		.loc 1 23 0
  29              		.cfi_startproc
  30              		@ args = 0, pretend = 0, frame = 0
  31              		@ frame_needed = 0, uses_anonymous_args = 0
  32              		@ link register save eliminated.
  24:main.c        ****     cycle = frq/sampling;
  33              		.loc 1 24 0
ARM GAS  C:\Users\Fede\AppData\Local\Temp\ccsbcQCm.s 			page 2


  34 0000 2F4A     		ldr	r2, .L2
  35 0002 304B     		ldr	r3, .L2+4
  36 0004 1A60     		str	r2, [r3]
  25:main.c        ****     
  26:main.c        ****     l1 = cycle/220; //A3
  37              		.loc 1 26 0
  38 0006 41F24E52 		movw	r2, #5454
  39 000a 2F4B     		ldr	r3, .L2+8
  40 000c 1A60     		str	r2, [r3]
  27:main.c        ****     l2 = cycle/246.942; //B3
  41              		.loc 1 27 0
  42 000e 41F2FB22 		movw	r2, #4859
  43 0012 2E4B     		ldr	r3, .L2+12
  44 0014 1A60     		str	r2, [r3]
  28:main.c        ****     l3 = cycle/261.626; //C4
  45              		.loc 1 28 0
  46 0016 41F2EA12 		movw	r2, #4586
  47 001a 2D4B     		ldr	r3, .L2+16
  48 001c 1A60     		str	r2, [r3]
  29:main.c        ****     l4 = cycle/293.665; //D4
  49              		.loc 1 29 0
  50 001e 40F6F672 		movw	r2, #4086
  51 0022 2C4B     		ldr	r3, .L2+20
  52 0024 1A60     		str	r2, [r3]
  30:main.c        ****     l5 = cycle/329.628; //E4
  53              		.loc 1 30 0
  54 0026 40F63862 		movw	r2, #3640
  55 002a 2B4B     		ldr	r3, .L2+24
  56 002c 1A60     		str	r2, [r3]
  31:main.c        ****     l6 = cycle/349.228; //F4
  57              		.loc 1 31 0
  58 002e 40F66C52 		movw	r2, #3436
  59 0032 2A4B     		ldr	r3, .L2+28
  60 0034 1A60     		str	r2, [r3]
  32:main.c        ****     l7 = cycle/391.995; //G4
  61              		.loc 1 32 0
  62 0036 40F6F532 		movw	r2, #3061
  63 003a 294B     		ldr	r3, .L2+32
  64 003c 1A60     		str	r2, [r3]
  33:main.c        ****     l8 = cycle/440; //A4
  65              		.loc 1 33 0
  66 003e 40F6A723 		movw	r3, #2727
  67 0042 284A     		ldr	r2, .L2+36
  68 0044 1360     		str	r3, [r2]
  34:main.c        ****     
  35:main.c        ****     d1 = cycle/440; //A4
  69              		.loc 1 35 0
  70 0046 284A     		ldr	r2, .L2+40
  71 0048 1360     		str	r3, [r2]
  36:main.c        ****     d2 = cycle/493.883; //B4
  72              		.loc 1 36 0
  73 004a 40F67D12 		movw	r2, #2429
  74 004e 274B     		ldr	r3, .L2+44
  75 0050 1A60     		str	r2, [r3]
  37:main.c        ****     d3 = cycle/523.251; //C5
  76              		.loc 1 37 0
  77 0052 40F6F502 		movw	r2, #2293
ARM GAS  C:\Users\Fede\AppData\Local\Temp\ccsbcQCm.s 			page 3


  78 0056 264B     		ldr	r3, .L2+48
  79 0058 1A60     		str	r2, [r3]
  38:main.c        ****     d4 = cycle/587.330; //D5
  80              		.loc 1 38 0
  81 005a 40F2FB72 		movw	r2, #2043
  82 005e 254B     		ldr	r3, .L2+52
  83 0060 1A60     		str	r2, [r3]
  39:main.c        ****     d5 = cycle/659.255; //E5
  84              		.loc 1 39 0
  85 0062 40F21C72 		movw	r2, #1820
  86 0066 244B     		ldr	r3, .L2+56
  87 0068 1A60     		str	r2, [r3]
  40:main.c        ****     d6 = cycle/698.456; //F5
  88              		.loc 1 40 0
  89 006a 40F2B662 		movw	r2, #1718
  90 006e 234B     		ldr	r3, .L2+60
  91 0070 1A60     		str	r2, [r3]
  41:main.c        ****     d7 = cycle/783.991; //G5
  92              		.loc 1 41 0
  93 0072 40F2FA52 		movw	r2, #1530
  94 0076 224B     		ldr	r3, .L2+64
  95 0078 1A60     		str	r2, [r3]
  42:main.c        ****     d8 = cycle/880; //A5
  96              		.loc 1 42 0
  97 007a 40F25353 		movw	r3, #1363
  98 007e 214A     		ldr	r2, .L2+68
  99 0080 1360     		str	r3, [r2]
  43:main.c        ****     
  44:main.c        ****     n1 = cycle/880; //A5
 100              		.loc 1 44 0
 101 0082 214A     		ldr	r2, .L2+72
 102 0084 1360     		str	r3, [r2]
  45:main.c        ****     n2 = cycle/987.76; //B5
 103              		.loc 1 45 0
 104 0086 40F2BE42 		movw	r2, #1214
 105 008a 204B     		ldr	r3, .L2+76
 106 008c 1A60     		str	r2, [r3]
  46:main.c        ****     n3 = cycle/1046.5; //C6
 107              		.loc 1 46 0
 108 008e 40F27A42 		movw	r2, #1146
 109 0092 1F4B     		ldr	r3, .L2+80
 110 0094 1A60     		str	r2, [r3]
  47:main.c        ****     n4 = cycle/1174.66; //D6
 111              		.loc 1 47 0
 112 0096 40F2FD32 		movw	r2, #1021
 113 009a 1E4B     		ldr	r3, .L2+84
 114 009c 1A60     		str	r2, [r3]
  48:main.c        ****     n5 = cycle/1318.5; //E6
 115              		.loc 1 48 0
 116 009e 40F28E32 		movw	r2, #910
 117 00a2 1D4B     		ldr	r3, .L2+88
 118 00a4 1A60     		str	r2, [r3]
  49:main.c        ****     n6 = cycle/1396.9; //F6
 119              		.loc 1 49 0
 120 00a6 40F25B32 		movw	r2, #859
 121 00aa 1C4B     		ldr	r3, .L2+92
 122 00ac 1A60     		str	r2, [r3]
ARM GAS  C:\Users\Fede\AppData\Local\Temp\ccsbcQCm.s 			page 4


  50:main.c        ****     n7 = cycle/1568; //G6
 123              		.loc 1 50 0
 124 00ae 40F2FD22 		movw	r2, #765
 125 00b2 1B4B     		ldr	r3, .L2+96
 126 00b4 1A60     		str	r2, [r3]
  51:main.c        ****     n8 = cycle/1760; //A6
 127              		.loc 1 51 0
 128 00b6 40F2A922 		movw	r2, #681
 129 00ba 1A4B     		ldr	r3, .L2+100
 130 00bc 1A60     		str	r2, [r3]
 131 00be 7047     		bx	lr
 132              	.L3:
 133              		.align	2
 134              	.L2:
 135 00c0 804F1200 		.word	1200000
 136 00c4 00000000 		.word	cycle
 137 00c8 00000000 		.word	l1
 138 00cc 00000000 		.word	l2
 139 00d0 00000000 		.word	l3
 140 00d4 00000000 		.word	l4
 141 00d8 00000000 		.word	l5
 142 00dc 00000000 		.word	l6
 143 00e0 00000000 		.word	l7
 144 00e4 00000000 		.word	l8
 145 00e8 00000000 		.word	d1
 146 00ec 00000000 		.word	d2
 147 00f0 00000000 		.word	d3
 148 00f4 00000000 		.word	d4
 149 00f8 00000000 		.word	d5
 150 00fc 00000000 		.word	d6
 151 0100 00000000 		.word	d7
 152 0104 00000000 		.word	d8
 153 0108 00000000 		.word	n1
 154 010c 00000000 		.word	n2
 155 0110 00000000 		.word	n3
 156 0114 00000000 		.word	n4
 157 0118 00000000 		.word	n5
 158 011c 00000000 		.word	n6
 159 0120 00000000 		.word	n7
 160 0124 00000000 		.word	n8
 161              		.cfi_endproc
 162              	.LFE63:
 163              		.size	setNotes, .-setNotes
 164              		.section	.text.isr_timer_Interrupt_InterruptCallback,"ax",%progbits
 165              		.align	2
 166              		.global	isr_timer_Interrupt_InterruptCallback
 167              		.thumb
 168              		.thumb_func
 169              		.type	isr_timer_Interrupt_InterruptCallback, %function
 170              	isr_timer_Interrupt_InterruptCallback:
 171              	.LFB64:
  52:main.c        ****     
  53:main.c        ****     //n6 = cycle/1975.5; // B6
  54:main.c        ****     //n7 = cycle/2093; // C7
  55:main.c        ****     //n8 = cycle/2394.32; // D7
  56:main.c        **** }
  57:main.c        **** //----------------------------------------------------
ARM GAS  C:\Users\Fede\AppData\Local\Temp\ccsbcQCm.s 			page 5


  58:main.c        **** 
  59:main.c        **** void isr_timer_Interrupt_InterruptCallback() {
 172              		.loc 1 59 0
 173              		.cfi_startproc
 174              		@ args = 0, pretend = 0, frame = 0
 175              		@ frame_needed = 0, uses_anonymous_args = 0
 176              		@ link register save eliminated.
  60:main.c        ****     tenthSecond = 1U;
 177              		.loc 1 60 0
 178 0000 0122     		movs	r2, #1
 179 0002 0C4B     		ldr	r3, .L7
 180 0004 1A70     		strb	r2, [r3]
  61:main.c        ****     oneSecondCount++;
 181              		.loc 1 61 0
 182 0006 0C4A     		ldr	r2, .L7+4
 183 0008 1378     		ldrb	r3, [r2]	@ zero_extendqisi2
 184 000a 0133     		adds	r3, r3, #1
 185 000c DBB2     		uxtb	r3, r3
 186 000e 1370     		strb	r3, [r2]
  62:main.c        ****     if(oneSecondCount > 9U) {
 187              		.loc 1 62 0
 188 0010 092B     		cmp	r3, #9
 189 0012 05D9     		bls	.L5
  63:main.c        ****         oneSecondCount = 0U;
 190              		.loc 1 63 0
 191 0014 0022     		movs	r2, #0
 192 0016 084B     		ldr	r3, .L7+4
 193 0018 1A70     		strb	r2, [r3]
  64:main.c        ****         oneSecond = 1U;
 194              		.loc 1 64 0
 195 001a 0122     		movs	r2, #1
 196 001c 074B     		ldr	r3, .L7+8
 197 001e 1A70     		strb	r2, [r3]
 198              	.L5:
  65:main.c        ****     }
  66:main.c        ****     
  67:main.c        ****     if(readed) {
 199              		.loc 1 67 0
 200 0020 074B     		ldr	r3, .L7+12
 201 0022 1B78     		ldrb	r3, [r3]	@ zero_extendqisi2
 202 0024 2BB1     		cbz	r3, .L4
  68:main.c        ****         change = 1U;
 203              		.loc 1 68 0
 204 0026 0122     		movs	r2, #1
 205 0028 064B     		ldr	r3, .L7+16
 206 002a 1A70     		strb	r2, [r3]
  69:main.c        ****         readed = 0U;
 207              		.loc 1 69 0
 208 002c 0022     		movs	r2, #0
 209 002e 044B     		ldr	r3, .L7+12
 210 0030 1A70     		strb	r2, [r3]
 211              	.L4:
 212 0032 7047     		bx	lr
 213              	.L8:
 214              		.align	2
 215              	.L7:
 216 0034 00000000 		.word	tenthSecond
ARM GAS  C:\Users\Fede\AppData\Local\Temp\ccsbcQCm.s 			page 6


 217 0038 00000000 		.word	.LANCHOR0
 218 003c 00000000 		.word	oneSecond
 219 0040 00000000 		.word	readed
 220 0044 00000000 		.word	change
 221              		.cfi_endproc
 222              	.LFE64:
 223              		.size	isr_timer_Interrupt_InterruptCallback, .-isr_timer_Interrupt_InterruptCallback
 224              		.section	.text.printGlobalPeriod,"ax",%progbits
 225              		.align	2
 226              		.global	printGlobalPeriod
 227              		.thumb
 228              		.thumb_func
 229              		.type	printGlobalPeriod, %function
 230              	printGlobalPeriod:
 231              	.LFB65:
  70:main.c        ****     }
  71:main.c        **** }
  72:main.c        **** 
  73:main.c        **** void printGlobalPeriod(int16 p) {
 232              		.loc 1 73 0
 233              		.cfi_startproc
 234              		@ args = 0, pretend = 0, frame = 0
 235              		@ frame_needed = 0, uses_anonymous_args = 0
 236              	.LVL0:
 237 0000 10B5     		push	{r4, lr}
 238              		.cfi_def_cfa_offset 8
 239              		.cfi_offset 4, -8
 240              		.cfi_offset 14, -4
  74:main.c        ****     sprintf(msg, "Periodo global actual: %i\r\n", p);
 241              		.loc 1 74 0
 242 0002 064C     		ldr	r4, .L11
 243 0004 0246     		mov	r2, r0
 244 0006 0649     		ldr	r1, .L11+4
 245 0008 2046     		mov	r0, r4
 246              	.LVL1:
 247 000a FFF7FEFF 		bl	sprintf
 248              	.LVL2:
  75:main.c        ****     UART_1_PutString(msg);
 249              		.loc 1 75 0
 250 000e 2046     		mov	r0, r4
 251 0010 FFF7FEFF 		bl	UART_1_PutString
 252              	.LVL3:
  76:main.c        ****     sprintf(msg, "");
 253              		.loc 1 76 0
 254 0014 0023     		movs	r3, #0
 255 0016 2370     		strb	r3, [r4]
 256 0018 10BD     		pop	{r4, pc}
 257              	.L12:
 258 001a 00BF     		.align	2
 259              	.L11:
 260 001c 00000000 		.word	msg
 261 0020 00000000 		.word	.LC0
 262              		.cfi_endproc
 263              	.LFE65:
 264              		.size	printGlobalPeriod, .-printGlobalPeriod
 265              		.section	.text.printFreq,"ax",%progbits
 266              		.align	2
ARM GAS  C:\Users\Fede\AppData\Local\Temp\ccsbcQCm.s 			page 7


 267              		.global	printFreq
 268              		.thumb
 269              		.thumb_func
 270              		.type	printFreq, %function
 271              	printFreq:
 272              	.LFB66:
  77:main.c        **** }
  78:main.c        **** 
  79:main.c        **** void printFreq(int16 f) {
 273              		.loc 1 79 0
 274              		.cfi_startproc
 275              		@ args = 0, pretend = 0, frame = 0
 276              		@ frame_needed = 0, uses_anonymous_args = 0
 277              	.LVL4:
 278 0000 10B5     		push	{r4, lr}
 279              		.cfi_def_cfa_offset 8
 280              		.cfi_offset 4, -8
 281              		.cfi_offset 14, -4
  80:main.c        ****     sprintf(msg, "Frecuencia actual de la nota %i: %i\r\n", selectedNote, f);
 282              		.loc 1 80 0
 283 0002 074C     		ldr	r4, .L15
 284 0004 0346     		mov	r3, r0
 285 0006 074A     		ldr	r2, .L15+4
 286 0008 5278     		ldrb	r2, [r2, #1]	@ zero_extendqisi2
 287 000a 0749     		ldr	r1, .L15+8
 288 000c 2046     		mov	r0, r4
 289              	.LVL5:
 290 000e FFF7FEFF 		bl	sprintf
 291              	.LVL6:
  81:main.c        ****     UART_1_PutString(msg);
 292              		.loc 1 81 0
 293 0012 2046     		mov	r0, r4
 294 0014 FFF7FEFF 		bl	UART_1_PutString
 295              	.LVL7:
  82:main.c        ****     sprintf(msg, "");
 296              		.loc 1 82 0
 297 0018 0023     		movs	r3, #0
 298 001a 2370     		strb	r3, [r4]
 299 001c 10BD     		pop	{r4, pc}
 300              	.L16:
 301 001e 00BF     		.align	2
 302              	.L15:
 303 0020 00000000 		.word	msg
 304 0024 00000000 		.word	.LANCHOR0
 305 0028 1C000000 		.word	.LC1
 306              		.cfi_endproc
 307              	.LFE66:
 308              		.size	printFreq, .-printFreq
 309              		.section	.text.printUpdateData,"ax",%progbits
 310              		.align	2
 311              		.global	printUpdateData
 312              		.thumb
 313              		.thumb_func
 314              		.type	printUpdateData, %function
 315              	printUpdateData:
 316              	.LFB67:
  83:main.c        **** }
ARM GAS  C:\Users\Fede\AppData\Local\Temp\ccsbcQCm.s 			page 8


  84:main.c        **** 
  85:main.c        **** void printUpdateData() {
 317              		.loc 1 85 0
 318              		.cfi_startproc
 319              		@ args = 0, pretend = 0, frame = 0
 320              		@ frame_needed = 0, uses_anonymous_args = 0
 321 0000 10B5     		push	{r4, lr}
 322              		.cfi_def_cfa_offset 8
 323              		.cfi_offset 4, -8
 324              		.cfi_offset 14, -4
  86:main.c        ****     UART_1_PutString("------------------------------------------\r\n");
 325              		.loc 1 86 0
 326 0002 0C48     		ldr	r0, .L19
 327 0004 FFF7FEFF 		bl	UART_1_PutString
 328              	.LVL8:
  87:main.c        ****     sprintf(msg, "Modificando la nota %i:\r\n", selectedNote);
 329              		.loc 1 87 0
 330 0008 0B4C     		ldr	r4, .L19+4
 331 000a 0C4B     		ldr	r3, .L19+8
 332 000c 5A78     		ldrb	r2, [r3, #1]	@ zero_extendqisi2
 333 000e 0C49     		ldr	r1, .L19+12
 334 0010 2046     		mov	r0, r4
 335 0012 FFF7FEFF 		bl	sprintf
 336              	.LVL9:
  88:main.c        ****     UART_1_PutString(msg);
 337              		.loc 1 88 0
 338 0016 2046     		mov	r0, r4
 339 0018 FFF7FEFF 		bl	UART_1_PutString
 340              	.LVL10:
  89:main.c        ****     UART_1_PutString("Pulse 1-8 para notas prefijadas,\r\n");
 341              		.loc 1 89 0
 342 001c 0948     		ldr	r0, .L19+16
 343 001e FFF7FEFF 		bl	UART_1_PutString
 344              	.LVL11:
  90:main.c        ****     UART_1_PutString("o +/- para cambiar manualmente la frecuencia.\r\n");
 345              		.loc 1 90 0
 346 0022 0948     		ldr	r0, .L19+20
 347 0024 FFF7FEFF 		bl	UART_1_PutString
 348              	.LVL12:
  91:main.c        ****     UART_1_PutString("Pulse L, M o H para cambiar el registro de las notas prefijadas.\r\n");
 349              		.loc 1 91 0
 350 0028 0848     		ldr	r0, .L19+24
 351 002a FFF7FEFF 		bl	UART_1_PutString
 352              	.LVL13:
  92:main.c        ****     sprintf(msg, "");
 353              		.loc 1 92 0
 354 002e 0023     		movs	r3, #0
 355 0030 2370     		strb	r3, [r4]
 356 0032 10BD     		pop	{r4, pc}
 357              	.L20:
 358              		.align	2
 359              	.L19:
 360 0034 44000000 		.word	.LC2
 361 0038 00000000 		.word	msg
 362 003c 00000000 		.word	.LANCHOR0
 363 0040 74000000 		.word	.LC3
 364 0044 90000000 		.word	.LC4
ARM GAS  C:\Users\Fede\AppData\Local\Temp\ccsbcQCm.s 			page 9


 365 0048 B4000000 		.word	.LC5
 366 004c E4000000 		.word	.LC6
 367              		.cfi_endproc
 368              	.LFE67:
 369              		.size	printUpdateData, .-printUpdateData
 370              		.section	.text.printWelcome,"ax",%progbits
 371              		.align	2
 372              		.global	printWelcome
 373              		.thumb
 374              		.thumb_func
 375              		.type	printWelcome, %function
 376              	printWelcome:
 377              	.LFB68:
  93:main.c        **** }
  94:main.c        **** 
  95:main.c        **** void printWelcome() {
 378              		.loc 1 95 0
 379              		.cfi_startproc
 380              		@ args = 0, pretend = 0, frame = 0
 381              		@ frame_needed = 0, uses_anonymous_args = 0
 382 0000 10B5     		push	{r4, lr}
 383              		.cfi_def_cfa_offset 8
 384              		.cfi_offset 4, -8
 385              		.cfi_offset 14, -4
  96:main.c        ****     UART_1_PutString("------------------------------------------\r\n");
 386              		.loc 1 96 0
 387 0002 074C     		ldr	r4, .L23
 388 0004 2046     		mov	r0, r4
 389 0006 FFF7FEFF 		bl	UART_1_PutString
 390              	.LVL14:
  97:main.c        ****     UART_1_PutString("Notes sequencer: \r\n");
 391              		.loc 1 97 0
 392 000a 0648     		ldr	r0, .L23+4
 393 000c FFF7FEFF 		bl	UART_1_PutString
 394              	.LVL15:
  98:main.c        ****     UART_1_PutString("------------------------------------------\r\n");
 395              		.loc 1 98 0
 396 0010 2046     		mov	r0, r4
 397 0012 FFF7FEFF 		bl	UART_1_PutString
 398              	.LVL16:
  99:main.c        ****     UART_1_PutString("Press 1, 2, 3 or 4 to select the note to configure or r to reset.\r\n");
 399              		.loc 1 99 0
 400 0016 0448     		ldr	r0, .L23+8
 401 0018 FFF7FEFF 		bl	UART_1_PutString
 402              	.LVL17:
 403 001c 10BD     		pop	{r4, pc}
 404              	.L24:
 405 001e 00BF     		.align	2
 406              	.L23:
 407 0020 44000000 		.word	.LC2
 408 0024 28010000 		.word	.LC7
 409 0028 3C010000 		.word	.LC8
 410              		.cfi_endproc
 411              	.LFE68:
 412              		.size	printWelcome, .-printWelcome
 413              		.section	.text.printRangeOut,"ax",%progbits
 414              		.align	2
ARM GAS  C:\Users\Fede\AppData\Local\Temp\ccsbcQCm.s 			page 10


 415              		.global	printRangeOut
 416              		.thumb
 417              		.thumb_func
 418              		.type	printRangeOut, %function
 419              	printRangeOut:
 420              	.LFB69:
 100:main.c        **** }
 101:main.c        **** 
 102:main.c        **** void printRangeOut(uint8 under) {
 421              		.loc 1 102 0
 422              		.cfi_startproc
 423              		@ args = 0, pretend = 0, frame = 0
 424              		@ frame_needed = 0, uses_anonymous_args = 0
 425              	.LVL18:
 426 0000 08B5     		push	{r3, lr}
 427              		.cfi_def_cfa_offset 8
 428              		.cfi_offset 3, -8
 429              		.cfi_offset 14, -4
 103:main.c        ****     UART_1_PutString((under) ? "valor minimo alcanzado.\r\n" : "valor maximo alcanzado.\r\n");
 430              		.loc 1 103 0
 431 0002 08B1     		cbz	r0, .L27
 432 0004 0248     		ldr	r0, .L29
 433              	.LVL19:
 434 0006 00E0     		b	.L26
 435              	.LVL20:
 436              	.L27:
 437 0008 0248     		ldr	r0, .L29+4
 438              	.LVL21:
 439              	.L26:
 440              		.loc 1 103 0 is_stmt 0 discriminator 4
 441 000a FFF7FEFF 		bl	UART_1_PutString
 442              	.LVL22:
 443 000e 08BD     		pop	{r3, pc}
 444              	.L30:
 445              		.align	2
 446              	.L29:
 447 0010 80010000 		.word	.LC9
 448 0014 9C010000 		.word	.LC10
 449              		.cfi_endproc
 450              	.LFE69:
 451              		.size	printRangeOut, .-printRangeOut
 452              		.section	.text.updateClock1,"ax",%progbits
 453              		.align	2
 454              		.global	updateClock1
 455              		.thumb
 456              		.thumb_func
 457              		.type	updateClock1, %function
 458              	updateClock1:
 459              	.LFB70:
 104:main.c        **** }
 105:main.c        **** 
 106:main.c        **** void updateClock1(int valAdd, uint8 ow) {
 460              		.loc 1 106 0 is_stmt 1
 461              		.cfi_startproc
 462              		@ args = 0, pretend = 0, frame = 0
 463              		@ frame_needed = 0, uses_anonymous_args = 0
 464              	.LVL23:
ARM GAS  C:\Users\Fede\AppData\Local\Temp\ccsbcQCm.s 			page 11


 465 0000 F8B5     		push	{r3, r4, r5, r6, r7, lr}
 466              		.cfi_def_cfa_offset 24
 467              		.cfi_offset 3, -24
 468              		.cfi_offset 4, -20
 469              		.cfi_offset 5, -16
 470              		.cfi_offset 6, -12
 471              		.cfi_offset 7, -8
 472              		.cfi_offset 14, -4
 473 0002 0446     		mov	r4, r0
 474 0004 0F46     		mov	r7, r1
 107:main.c        ****     uint16 oldVal = Clock_1_GetDividerRegister() + 1;
 475              		.loc 1 107 0
 476 0006 FFF7FEFF 		bl	Clock_1_GetDividerRegister
 477              	.LVL24:
 478 000a 0130     		adds	r0, r0, #1
 479 000c 86B2     		uxth	r6, r0
 480              	.LVL25:
 108:main.c        ****     uint16 oldFreq = cycle / oldVal;
 481              		.loc 1 108 0
 482 000e 1C4B     		ldr	r3, .L41
 483 0010 1D68     		ldr	r5, [r3]
 484 0012 B5FBF6F5 		udiv	r5, r5, r6
 485 0016 ADB2     		uxth	r5, r5
 486              	.LVL26:
 109:main.c        ****     uint16 newval = (ow) ? valAdd : (Clock_1_GetDividerRegister() + valAdd + 1);
 487              		.loc 1 109 0
 488 0018 2FB9     		cbnz	r7, .L32
 489              		.loc 1 109 0 is_stmt 0 discriminator 1
 490 001a FFF7FEFF 		bl	Clock_1_GetDividerRegister
 491              	.LVL27:
 492 001e 2044     		add	r0, r0, r4
 493 0020 0130     		adds	r0, r0, #1
 494 0022 80B2     		uxth	r0, r0
 495 0024 00E0     		b	.L33
 496              	.L32:
 497              		.loc 1 109 0 discriminator 2
 498 0026 A0B2     		uxth	r0, r4
 499              	.L33:
 500              	.LVL28:
 110:main.c        ****     uint16 freq = cycle / newval;
 501              		.loc 1 110 0 is_stmt 1 discriminator 4
 502 0028 154B     		ldr	r3, .L41
 503 002a 1B68     		ldr	r3, [r3]
 504 002c B3FBF0F4 		udiv	r4, r3, r0
 505              	.LVL29:
 506 0030 A4B2     		uxth	r4, r4
 507              	.LVL30:
 111:main.c        ****     if ((oldFreq <= 100) && (newval > oldVal)) {
 508              		.loc 1 111 0 discriminator 4
 509 0032 642D     		cmp	r5, #100
 510 0034 05D8     		bhi	.L34
 511              		.loc 1 111 0 is_stmt 0 discriminator 1
 512 0036 B042     		cmp	r0, r6
 513 0038 03D9     		bls	.L34
 112:main.c        ****         printRangeOut(1);
 514              		.loc 1 112 0 is_stmt 1
 515 003a 0120     		movs	r0, #1
ARM GAS  C:\Users\Fede\AppData\Local\Temp\ccsbcQCm.s 			page 12


 516              	.LVL31:
 517 003c FFF7FEFF 		bl	printRangeOut
 518              	.LVL32:
 519 0040 F8BD     		pop	{r3, r4, r5, r6, r7, pc}
 520              	.LVL33:
 521              	.L34:
 113:main.c        ****     } else if ((oldFreq >= 18000) && (newval < oldVal)) {
 522              		.loc 1 113 0
 523 0042 44F24F62 		movw	r2, #17999
 524 0046 9542     		cmp	r5, r2
 525 0048 0FD9     		bls	.L36
 526              		.loc 1 113 0 is_stmt 0 discriminator 1
 527 004a B042     		cmp	r0, r6
 528 004c 0DD2     		bcs	.L36
 114:main.c        ****         printRangeOut(0);
 529              		.loc 1 114 0 is_stmt 1
 530 004e 0020     		movs	r0, #0
 531              	.LVL34:
 532 0050 FFF7FEFF 		bl	printRangeOut
 533              	.LVL35:
 534 0054 F8BD     		pop	{r3, r4, r5, r6, r7, pc}
 535              	.LVL36:
 536              	.L39:
 115:main.c        ****     } else {
 116:main.c        ****         while (freq == oldFreq) {
 117:main.c        ****             if (newval < oldVal) {
 537              		.loc 1 117 0
 538 0056 B042     		cmp	r0, r6
 539 0058 02D2     		bcs	.L37
 118:main.c        ****                 newval--;
 540              		.loc 1 118 0
 541 005a 0138     		subs	r0, r0, #1
 542              	.LVL37:
 543 005c 80B2     		uxth	r0, r0
 544              	.LVL38:
 545 005e 01E0     		b	.L38
 546              	.L37:
 119:main.c        ****             } else {
 120:main.c        ****                 newval++;
 547              		.loc 1 120 0
 548 0060 0130     		adds	r0, r0, #1
 549              	.LVL39:
 550 0062 80B2     		uxth	r0, r0
 551              	.LVL40:
 552              	.L38:
 121:main.c        ****             }
 122:main.c        ****             freq = cycle / newval;
 553              		.loc 1 122 0
 554 0064 B3FBF0F4 		udiv	r4, r3, r0
 555              	.LVL41:
 556 0068 A4B2     		uxth	r4, r4
 557              	.LVL42:
 558              	.L36:
 116:main.c        ****             if (newval < oldVal) {
 559              		.loc 1 116 0
 560 006a AC42     		cmp	r4, r5
 561 006c F3D0     		beq	.L39
ARM GAS  C:\Users\Fede\AppData\Local\Temp\ccsbcQCm.s 			page 13


 123:main.c        ****         }
 124:main.c        ****         Clock_1_SetDivider(newval - 1);
 562              		.loc 1 124 0
 563 006e 0138     		subs	r0, r0, #1
 564              	.LVL43:
 565 0070 0121     		movs	r1, #1
 566 0072 80B2     		uxth	r0, r0
 567 0074 FFF7FEFF 		bl	Clock_1_SetDividerRegister
 568              	.LVL44:
 125:main.c        ****         printFreq(freq);
 569              		.loc 1 125 0
 570 0078 20B2     		sxth	r0, r4
 571 007a FFF7FEFF 		bl	printFreq
 572              	.LVL45:
 573 007e F8BD     		pop	{r3, r4, r5, r6, r7, pc}
 574              	.LVL46:
 575              	.L42:
 576              		.align	2
 577              	.L41:
 578 0080 00000000 		.word	cycle
 579              		.cfi_endproc
 580              	.LFE70:
 581              		.size	updateClock1, .-updateClock1
 582              		.section	.text.updateClock2,"ax",%progbits
 583              		.align	2
 584              		.global	updateClock2
 585              		.thumb
 586              		.thumb_func
 587              		.type	updateClock2, %function
 588              	updateClock2:
 589              	.LFB71:
 126:main.c        ****     }
 127:main.c        **** }
 128:main.c        **** 
 129:main.c        **** void updateClock2(int valAdd, uint8 ow) {
 590              		.loc 1 129 0
 591              		.cfi_startproc
 592              		@ args = 0, pretend = 0, frame = 0
 593              		@ frame_needed = 0, uses_anonymous_args = 0
 594              	.LVL47:
 595 0000 F8B5     		push	{r3, r4, r5, r6, r7, lr}
 596              		.cfi_def_cfa_offset 24
 597              		.cfi_offset 3, -24
 598              		.cfi_offset 4, -20
 599              		.cfi_offset 5, -16
 600              		.cfi_offset 6, -12
 601              		.cfi_offset 7, -8
 602              		.cfi_offset 14, -4
 603 0002 0446     		mov	r4, r0
 604 0004 0F46     		mov	r7, r1
 130:main.c        ****     uint16 oldVal = Clock_2_GetDividerRegister() + 1;
 605              		.loc 1 130 0
 606 0006 FFF7FEFF 		bl	Clock_2_GetDividerRegister
 607              	.LVL48:
 608 000a 0130     		adds	r0, r0, #1
 609 000c 86B2     		uxth	r6, r0
 610              	.LVL49:
ARM GAS  C:\Users\Fede\AppData\Local\Temp\ccsbcQCm.s 			page 14


 131:main.c        ****     uint16 oldFreq = cycle / oldVal;
 611              		.loc 1 131 0
 612 000e 1C4B     		ldr	r3, .L53
 613 0010 1D68     		ldr	r5, [r3]
 614 0012 B5FBF6F5 		udiv	r5, r5, r6
 615 0016 ADB2     		uxth	r5, r5
 616              	.LVL50:
 132:main.c        ****     uint16 newval = (ow) ? valAdd : (Clock_2_GetDividerRegister() + valAdd + 1);
 617              		.loc 1 132 0
 618 0018 2FB9     		cbnz	r7, .L44
 619              		.loc 1 132 0 is_stmt 0 discriminator 1
 620 001a FFF7FEFF 		bl	Clock_2_GetDividerRegister
 621              	.LVL51:
 622 001e 2044     		add	r0, r0, r4
 623 0020 0130     		adds	r0, r0, #1
 624 0022 80B2     		uxth	r0, r0
 625 0024 00E0     		b	.L45
 626              	.L44:
 627              		.loc 1 132 0 discriminator 2
 628 0026 A0B2     		uxth	r0, r4
 629              	.L45:
 630              	.LVL52:
 133:main.c        ****     uint16 freq = cycle / newval;
 631              		.loc 1 133 0 is_stmt 1 discriminator 4
 632 0028 154B     		ldr	r3, .L53
 633 002a 1B68     		ldr	r3, [r3]
 634 002c B3FBF0F4 		udiv	r4, r3, r0
 635              	.LVL53:
 636 0030 A4B2     		uxth	r4, r4
 637              	.LVL54:
 134:main.c        ****     if (oldFreq <= 100 && (newval > oldVal)) {
 638              		.loc 1 134 0 discriminator 4
 639 0032 642D     		cmp	r5, #100
 640 0034 05D8     		bhi	.L46
 641              		.loc 1 134 0 is_stmt 0 discriminator 1
 642 0036 B042     		cmp	r0, r6
 643 0038 03D9     		bls	.L46
 135:main.c        ****         printRangeOut(1);
 644              		.loc 1 135 0 is_stmt 1
 645 003a 0120     		movs	r0, #1
 646              	.LVL55:
 647 003c FFF7FEFF 		bl	printRangeOut
 648              	.LVL56:
 649 0040 F8BD     		pop	{r3, r4, r5, r6, r7, pc}
 650              	.LVL57:
 651              	.L46:
 136:main.c        ****     } else if (oldFreq >= 18000 && (newval < oldVal)) {
 652              		.loc 1 136 0
 653 0042 44F24F62 		movw	r2, #17999
 654 0046 9542     		cmp	r5, r2
 655 0048 0FD9     		bls	.L48
 656              		.loc 1 136 0 is_stmt 0 discriminator 1
 657 004a B042     		cmp	r0, r6
 658 004c 0DD2     		bcs	.L48
 137:main.c        ****         printRangeOut(0);
 659              		.loc 1 137 0 is_stmt 1
 660 004e 0020     		movs	r0, #0
ARM GAS  C:\Users\Fede\AppData\Local\Temp\ccsbcQCm.s 			page 15


 661              	.LVL58:
 662 0050 FFF7FEFF 		bl	printRangeOut
 663              	.LVL59:
 664 0054 F8BD     		pop	{r3, r4, r5, r6, r7, pc}
 665              	.LVL60:
 666              	.L51:
 138:main.c        ****     } else {
 139:main.c        ****         while (freq == oldFreq) {
 140:main.c        ****             if (newval < oldVal) {
 667              		.loc 1 140 0
 668 0056 B042     		cmp	r0, r6
 669 0058 02D2     		bcs	.L49
 141:main.c        ****                 newval--;
 670              		.loc 1 141 0
 671 005a 0138     		subs	r0, r0, #1
 672              	.LVL61:
 673 005c 80B2     		uxth	r0, r0
 674              	.LVL62:
 675 005e 01E0     		b	.L50
 676              	.L49:
 142:main.c        ****             } else {
 143:main.c        ****                 newval++;
 677              		.loc 1 143 0
 678 0060 0130     		adds	r0, r0, #1
 679              	.LVL63:
 680 0062 80B2     		uxth	r0, r0
 681              	.LVL64:
 682              	.L50:
 144:main.c        ****             }
 145:main.c        ****             freq = cycle / newval;
 683              		.loc 1 145 0
 684 0064 B3FBF0F4 		udiv	r4, r3, r0
 685              	.LVL65:
 686 0068 A4B2     		uxth	r4, r4
 687              	.LVL66:
 688              	.L48:
 139:main.c        ****             if (newval < oldVal) {
 689              		.loc 1 139 0
 690 006a AC42     		cmp	r4, r5
 691 006c F3D0     		beq	.L51
 146:main.c        ****         }
 147:main.c        ****         Clock_2_SetDivider(newval - 1);
 692              		.loc 1 147 0
 693 006e 0138     		subs	r0, r0, #1
 694              	.LVL67:
 695 0070 0121     		movs	r1, #1
 696 0072 80B2     		uxth	r0, r0
 697 0074 FFF7FEFF 		bl	Clock_2_SetDividerRegister
 698              	.LVL68:
 148:main.c        ****         printFreq(freq);
 699              		.loc 1 148 0
 700 0078 20B2     		sxth	r0, r4
 701 007a FFF7FEFF 		bl	printFreq
 702              	.LVL69:
 703 007e F8BD     		pop	{r3, r4, r5, r6, r7, pc}
 704              	.LVL70:
 705              	.L54:
ARM GAS  C:\Users\Fede\AppData\Local\Temp\ccsbcQCm.s 			page 16


 706              		.align	2
 707              	.L53:
 708 0080 00000000 		.word	cycle
 709              		.cfi_endproc
 710              	.LFE71:
 711              		.size	updateClock2, .-updateClock2
 712              		.section	.text.updateClock3,"ax",%progbits
 713              		.align	2
 714              		.global	updateClock3
 715              		.thumb
 716              		.thumb_func
 717              		.type	updateClock3, %function
 718              	updateClock3:
 719              	.LFB72:
 149:main.c        ****     }
 150:main.c        **** }
 151:main.c        **** 
 152:main.c        **** void updateClock3(int valAdd, uint8 ow) {
 720              		.loc 1 152 0
 721              		.cfi_startproc
 722              		@ args = 0, pretend = 0, frame = 0
 723              		@ frame_needed = 0, uses_anonymous_args = 0
 724              	.LVL71:
 725 0000 F8B5     		push	{r3, r4, r5, r6, r7, lr}
 726              		.cfi_def_cfa_offset 24
 727              		.cfi_offset 3, -24
 728              		.cfi_offset 4, -20
 729              		.cfi_offset 5, -16
 730              		.cfi_offset 6, -12
 731              		.cfi_offset 7, -8
 732              		.cfi_offset 14, -4
 733 0002 0446     		mov	r4, r0
 734 0004 0F46     		mov	r7, r1
 153:main.c        ****     uint16 oldVal = Clock_3_GetDividerRegister() + 1;
 735              		.loc 1 153 0
 736 0006 FFF7FEFF 		bl	Clock_3_GetDividerRegister
 737              	.LVL72:
 738 000a 0130     		adds	r0, r0, #1
 739 000c 86B2     		uxth	r6, r0
 740              	.LVL73:
 154:main.c        ****     uint16 oldFreq = cycle / oldVal;
 741              		.loc 1 154 0
 742 000e 1C4B     		ldr	r3, .L65
 743 0010 1D68     		ldr	r5, [r3]
 744 0012 B5FBF6F5 		udiv	r5, r5, r6
 745 0016 ADB2     		uxth	r5, r5
 746              	.LVL74:
 155:main.c        ****     uint16 newval = (ow) ? valAdd : (Clock_3_GetDividerRegister() + valAdd + 1);
 747              		.loc 1 155 0
 748 0018 2FB9     		cbnz	r7, .L56
 749              		.loc 1 155 0 is_stmt 0 discriminator 1
 750 001a FFF7FEFF 		bl	Clock_3_GetDividerRegister
 751              	.LVL75:
 752 001e 2044     		add	r0, r0, r4
 753 0020 0130     		adds	r0, r0, #1
 754 0022 80B2     		uxth	r0, r0
 755 0024 00E0     		b	.L57
ARM GAS  C:\Users\Fede\AppData\Local\Temp\ccsbcQCm.s 			page 17


 756              	.L56:
 757              		.loc 1 155 0 discriminator 2
 758 0026 A0B2     		uxth	r0, r4
 759              	.L57:
 760              	.LVL76:
 156:main.c        ****     uint16 freq = cycle / newval;
 761              		.loc 1 156 0 is_stmt 1 discriminator 4
 762 0028 154B     		ldr	r3, .L65
 763 002a 1B68     		ldr	r3, [r3]
 764 002c B3FBF0F4 		udiv	r4, r3, r0
 765              	.LVL77:
 766 0030 A4B2     		uxth	r4, r4
 767              	.LVL78:
 157:main.c        ****     if (oldFreq <= 100 && (newval > oldVal)) {
 768              		.loc 1 157 0 discriminator 4
 769 0032 642D     		cmp	r5, #100
 770 0034 05D8     		bhi	.L58
 771              		.loc 1 157 0 is_stmt 0 discriminator 1
 772 0036 B042     		cmp	r0, r6
 773 0038 03D9     		bls	.L58
 158:main.c        ****         printRangeOut(1);
 774              		.loc 1 158 0 is_stmt 1
 775 003a 0120     		movs	r0, #1
 776              	.LVL79:
 777 003c FFF7FEFF 		bl	printRangeOut
 778              	.LVL80:
 779 0040 F8BD     		pop	{r3, r4, r5, r6, r7, pc}
 780              	.LVL81:
 781              	.L58:
 159:main.c        ****     } else if (oldFreq >= 18000 && (newval < oldVal)) {
 782              		.loc 1 159 0
 783 0042 44F24F62 		movw	r2, #17999
 784 0046 9542     		cmp	r5, r2
 785 0048 0FD9     		bls	.L60
 786              		.loc 1 159 0 is_stmt 0 discriminator 1
 787 004a B042     		cmp	r0, r6
 788 004c 0DD2     		bcs	.L60
 160:main.c        ****         printRangeOut(0);
 789              		.loc 1 160 0 is_stmt 1
 790 004e 0020     		movs	r0, #0
 791              	.LVL82:
 792 0050 FFF7FEFF 		bl	printRangeOut
 793              	.LVL83:
 794 0054 F8BD     		pop	{r3, r4, r5, r6, r7, pc}
 795              	.LVL84:
 796              	.L63:
 161:main.c        ****     } else {
 162:main.c        ****         while (freq == oldFreq) {
 163:main.c        ****             if (newval < oldVal) {
 797              		.loc 1 163 0
 798 0056 B042     		cmp	r0, r6
 799 0058 02D2     		bcs	.L61
 164:main.c        ****                 newval--;
 800              		.loc 1 164 0
 801 005a 0138     		subs	r0, r0, #1
 802              	.LVL85:
 803 005c 80B2     		uxth	r0, r0
ARM GAS  C:\Users\Fede\AppData\Local\Temp\ccsbcQCm.s 			page 18


 804              	.LVL86:
 805 005e 01E0     		b	.L62
 806              	.L61:
 165:main.c        ****             } else {
 166:main.c        ****                 newval++;
 807              		.loc 1 166 0
 808 0060 0130     		adds	r0, r0, #1
 809              	.LVL87:
 810 0062 80B2     		uxth	r0, r0
 811              	.LVL88:
 812              	.L62:
 167:main.c        ****             }
 168:main.c        ****             freq = cycle / newval;
 813              		.loc 1 168 0
 814 0064 B3FBF0F4 		udiv	r4, r3, r0
 815              	.LVL89:
 816 0068 A4B2     		uxth	r4, r4
 817              	.LVL90:
 818              	.L60:
 162:main.c        ****             if (newval < oldVal) {
 819              		.loc 1 162 0
 820 006a AC42     		cmp	r4, r5
 821 006c F3D0     		beq	.L63
 169:main.c        ****         }
 170:main.c        ****         Clock_3_SetDivider(newval - 1);
 822              		.loc 1 170 0
 823 006e 0138     		subs	r0, r0, #1
 824              	.LVL91:
 825 0070 0121     		movs	r1, #1
 826 0072 80B2     		uxth	r0, r0
 827 0074 FFF7FEFF 		bl	Clock_3_SetDividerRegister
 828              	.LVL92:
 171:main.c        ****         printFreq(freq);
 829              		.loc 1 171 0
 830 0078 20B2     		sxth	r0, r4
 831 007a FFF7FEFF 		bl	printFreq
 832              	.LVL93:
 833 007e F8BD     		pop	{r3, r4, r5, r6, r7, pc}
 834              	.LVL94:
 835              	.L66:
 836              		.align	2
 837              	.L65:
 838 0080 00000000 		.word	cycle
 839              		.cfi_endproc
 840              	.LFE72:
 841              		.size	updateClock3, .-updateClock3
 842              		.section	.text.updateClock4,"ax",%progbits
 843              		.align	2
 844              		.global	updateClock4
 845              		.thumb
 846              		.thumb_func
 847              		.type	updateClock4, %function
 848              	updateClock4:
 849              	.LFB73:
 172:main.c        ****     }
 173:main.c        **** }
 174:main.c        **** 
ARM GAS  C:\Users\Fede\AppData\Local\Temp\ccsbcQCm.s 			page 19


 175:main.c        **** void updateClock4(int valAdd, uint8 ow) {
 850              		.loc 1 175 0
 851              		.cfi_startproc
 852              		@ args = 0, pretend = 0, frame = 0
 853              		@ frame_needed = 0, uses_anonymous_args = 0
 854              	.LVL95:
 855 0000 F8B5     		push	{r3, r4, r5, r6, r7, lr}
 856              		.cfi_def_cfa_offset 24
 857              		.cfi_offset 3, -24
 858              		.cfi_offset 4, -20
 859              		.cfi_offset 5, -16
 860              		.cfi_offset 6, -12
 861              		.cfi_offset 7, -8
 862              		.cfi_offset 14, -4
 863 0002 0446     		mov	r4, r0
 864 0004 0F46     		mov	r7, r1
 176:main.c        ****     uint16 oldVal = Clock_4_GetDividerRegister() + 1;
 865              		.loc 1 176 0
 866 0006 FFF7FEFF 		bl	Clock_4_GetDividerRegister
 867              	.LVL96:
 868 000a 0130     		adds	r0, r0, #1
 869 000c 86B2     		uxth	r6, r0
 870              	.LVL97:
 177:main.c        ****     uint16 oldFreq = cycle / oldVal;
 871              		.loc 1 177 0
 872 000e 1C4B     		ldr	r3, .L77
 873 0010 1D68     		ldr	r5, [r3]
 874 0012 B5FBF6F5 		udiv	r5, r5, r6
 875 0016 ADB2     		uxth	r5, r5
 876              	.LVL98:
 178:main.c        ****     uint16 newval = (ow) ? valAdd : (Clock_4_GetDividerRegister() + valAdd + 1);
 877              		.loc 1 178 0
 878 0018 2FB9     		cbnz	r7, .L68
 879              		.loc 1 178 0 is_stmt 0 discriminator 1
 880 001a FFF7FEFF 		bl	Clock_4_GetDividerRegister
 881              	.LVL99:
 882 001e 2044     		add	r0, r0, r4
 883 0020 0130     		adds	r0, r0, #1
 884 0022 80B2     		uxth	r0, r0
 885 0024 00E0     		b	.L69
 886              	.L68:
 887              		.loc 1 178 0 discriminator 2
 888 0026 A0B2     		uxth	r0, r4
 889              	.L69:
 890              	.LVL100:
 179:main.c        ****     uint16 freq = cycle / newval;
 891              		.loc 1 179 0 is_stmt 1 discriminator 4
 892 0028 154B     		ldr	r3, .L77
 893 002a 1B68     		ldr	r3, [r3]
 894 002c B3FBF0F4 		udiv	r4, r3, r0
 895              	.LVL101:
 896 0030 A4B2     		uxth	r4, r4
 897              	.LVL102:
 180:main.c        ****     if (oldFreq <= 100 && (newval > oldVal)) {
 898              		.loc 1 180 0 discriminator 4
 899 0032 642D     		cmp	r5, #100
 900 0034 05D8     		bhi	.L70
ARM GAS  C:\Users\Fede\AppData\Local\Temp\ccsbcQCm.s 			page 20


 901              		.loc 1 180 0 is_stmt 0 discriminator 1
 902 0036 B042     		cmp	r0, r6
 903 0038 03D9     		bls	.L70
 181:main.c        ****         printRangeOut(1);
 904              		.loc 1 181 0 is_stmt 1
 905 003a 0120     		movs	r0, #1
 906              	.LVL103:
 907 003c FFF7FEFF 		bl	printRangeOut
 908              	.LVL104:
 909 0040 F8BD     		pop	{r3, r4, r5, r6, r7, pc}
 910              	.LVL105:
 911              	.L70:
 182:main.c        ****     } else if (oldFreq >= 18000 && (newval < oldVal)) {
 912              		.loc 1 182 0
 913 0042 44F24F62 		movw	r2, #17999
 914 0046 9542     		cmp	r5, r2
 915 0048 0FD9     		bls	.L72
 916              		.loc 1 182 0 is_stmt 0 discriminator 1
 917 004a B042     		cmp	r0, r6
 918 004c 0DD2     		bcs	.L72
 183:main.c        ****         printRangeOut(0);
 919              		.loc 1 183 0 is_stmt 1
 920 004e 0020     		movs	r0, #0
 921              	.LVL106:
 922 0050 FFF7FEFF 		bl	printRangeOut
 923              	.LVL107:
 924 0054 F8BD     		pop	{r3, r4, r5, r6, r7, pc}
 925              	.LVL108:
 926              	.L75:
 184:main.c        ****     } else {
 185:main.c        ****         while (freq == oldFreq) {
 186:main.c        ****             if (newval < oldVal) {
 927              		.loc 1 186 0
 928 0056 B042     		cmp	r0, r6
 929 0058 02D2     		bcs	.L73
 187:main.c        ****                 newval--;
 930              		.loc 1 187 0
 931 005a 0138     		subs	r0, r0, #1
 932              	.LVL109:
 933 005c 80B2     		uxth	r0, r0
 934              	.LVL110:
 935 005e 01E0     		b	.L74
 936              	.L73:
 188:main.c        ****             } else {
 189:main.c        ****                 newval++;
 937              		.loc 1 189 0
 938 0060 0130     		adds	r0, r0, #1
 939              	.LVL111:
 940 0062 80B2     		uxth	r0, r0
 941              	.LVL112:
 942              	.L74:
 190:main.c        ****             }
 191:main.c        ****             freq = cycle / newval;
 943              		.loc 1 191 0
 944 0064 B3FBF0F4 		udiv	r4, r3, r0
 945              	.LVL113:
 946 0068 A4B2     		uxth	r4, r4
ARM GAS  C:\Users\Fede\AppData\Local\Temp\ccsbcQCm.s 			page 21


 947              	.LVL114:
 948              	.L72:
 185:main.c        ****             if (newval < oldVal) {
 949              		.loc 1 185 0
 950 006a AC42     		cmp	r4, r5
 951 006c F3D0     		beq	.L75
 192:main.c        ****         }
 193:main.c        ****         Clock_4_SetDivider(newval - 1);
 952              		.loc 1 193 0
 953 006e 0138     		subs	r0, r0, #1
 954              	.LVL115:
 955 0070 0121     		movs	r1, #1
 956 0072 80B2     		uxth	r0, r0
 957 0074 FFF7FEFF 		bl	Clock_4_SetDividerRegister
 958              	.LVL116:
 194:main.c        ****         printFreq(freq);
 959              		.loc 1 194 0
 960 0078 20B2     		sxth	r0, r4
 961 007a FFF7FEFF 		bl	printFreq
 962              	.LVL117:
 963 007e F8BD     		pop	{r3, r4, r5, r6, r7, pc}
 964              	.LVL118:
 965              	.L78:
 966              		.align	2
 967              	.L77:
 968 0080 00000000 		.word	cycle
 969              		.cfi_endproc
 970              	.LFE73:
 971              		.size	updateClock4, .-updateClock4
 972              		.section	.text.updateClock,"ax",%progbits
 973              		.align	2
 974              		.global	updateClock
 975              		.thumb
 976              		.thumb_func
 977              		.type	updateClock, %function
 978              	updateClock:
 979              	.LFB74:
 195:main.c        ****     }
 196:main.c        **** }
 197:main.c        **** 
 198:main.c        **** 
 199:main.c        **** void updateClock(int valAdd, uint8 ow) {
 980              		.loc 1 199 0
 981              		.cfi_startproc
 982              		@ args = 0, pretend = 0, frame = 0
 983              		@ frame_needed = 0, uses_anonymous_args = 0
 984              	.LVL119:
 985 0000 08B5     		push	{r3, lr}
 986              		.cfi_def_cfa_offset 8
 987              		.cfi_offset 3, -8
 988              		.cfi_offset 14, -4
 200:main.c        ****     switch(selectedNote)
 989              		.loc 1 200 0
 990 0002 0A4B     		ldr	r3, .L87
 991 0004 5B78     		ldrb	r3, [r3, #1]	@ zero_extendqisi2
 992 0006 013B     		subs	r3, r3, #1
 993 0008 032B     		cmp	r3, #3
ARM GAS  C:\Users\Fede\AppData\Local\Temp\ccsbcQCm.s 			page 22


 994 000a 0ED8     		bhi	.L79
 995 000c DFE803F0 		tbb	[pc, r3]
 996              	.L82:
 997 0010 02       		.byte	(.L81-.L82)/2
 998 0011 05       		.byte	(.L83-.L82)/2
 999 0012 08       		.byte	(.L84-.L82)/2
 1000 0013 0B       		.byte	(.L85-.L82)/2
 1001              		.p2align 1
 1002              	.L81:
 201:main.c        ****     {
 202:main.c        ****         case 1:
 203:main.c        ****             updateClock1(valAdd, ow);
 1003              		.loc 1 203 0
 1004 0014 FFF7FEFF 		bl	updateClock1
 1005              	.LVL120:
 204:main.c        ****             break;
 1006              		.loc 1 204 0
 1007 0018 08BD     		pop	{r3, pc}
 1008              	.LVL121:
 1009              	.L83:
 205:main.c        ****         case 2:
 206:main.c        ****             updateClock2(valAdd, ow);
 1010              		.loc 1 206 0
 1011 001a FFF7FEFF 		bl	updateClock2
 1012              	.LVL122:
 207:main.c        ****             break;
 1013              		.loc 1 207 0
 1014 001e 08BD     		pop	{r3, pc}
 1015              	.LVL123:
 1016              	.L84:
 208:main.c        ****         case 3:
 209:main.c        ****             updateClock3(valAdd, ow);
 1017              		.loc 1 209 0
 1018 0020 FFF7FEFF 		bl	updateClock3
 1019              	.LVL124:
 210:main.c        ****             break;
 1020              		.loc 1 210 0
 1021 0024 08BD     		pop	{r3, pc}
 1022              	.LVL125:
 1023              	.L85:
 211:main.c        ****         case 4:
 212:main.c        ****             updateClock4(valAdd, ow);
 1024              		.loc 1 212 0
 1025 0026 FFF7FEFF 		bl	updateClock4
 1026              	.LVL126:
 1027              	.L79:
 1028 002a 08BD     		pop	{r3, pc}
 1029              	.L88:
 1030              		.align	2
 1031              	.L87:
 1032 002c 00000000 		.word	.LANCHOR0
 1033              		.cfi_endproc
 1034              	.LFE74:
 1035              		.size	updateClock, .-updateClock
 1036              		.section	.text.resetAll,"ax",%progbits
 1037              		.align	2
 1038              		.global	resetAll
ARM GAS  C:\Users\Fede\AppData\Local\Temp\ccsbcQCm.s 			page 23


 1039              		.thumb
 1040              		.thumb_func
 1041              		.type	resetAll, %function
 1042              	resetAll:
 1043              	.LFB75:
 213:main.c        ****             break;
 214:main.c        ****     }
 215:main.c        **** }
 216:main.c        **** 
 217:main.c        **** void resetAll(void) {
 1044              		.loc 1 217 0
 1045              		.cfi_startproc
 1046              		@ args = 0, pretend = 0, frame = 0
 1047              		@ frame_needed = 0, uses_anonymous_args = 0
 1048 0000 10B5     		push	{r4, lr}
 1049              		.cfi_def_cfa_offset 8
 1050              		.cfi_offset 4, -8
 1051              		.cfi_offset 14, -4
 218:main.c        ****     updateClock1(n1, 1);
 1052              		.loc 1 218 0
 1053 0002 114C     		ldr	r4, .L91
 1054 0004 0121     		movs	r1, #1
 1055 0006 2068     		ldr	r0, [r4]
 1056 0008 FFF7FEFF 		bl	updateClock1
 1057              	.LVL127:
 219:main.c        ****     updateClock2(n2, 1);
 1058              		.loc 1 219 0
 1059 000c 0121     		movs	r1, #1
 1060 000e 0F4B     		ldr	r3, .L91+4
 1061 0010 1868     		ldr	r0, [r3]
 1062 0012 FFF7FEFF 		bl	updateClock2
 1063              	.LVL128:
 220:main.c        ****     updateClock3(n3, 1);
 1064              		.loc 1 220 0
 1065 0016 0121     		movs	r1, #1
 1066 0018 0D4B     		ldr	r3, .L91+8
 1067 001a 1868     		ldr	r0, [r3]
 1068 001c FFF7FEFF 		bl	updateClock3
 1069              	.LVL129:
 221:main.c        ****     updateClock4(n1, 1);
 1070              		.loc 1 221 0
 1071 0020 0121     		movs	r1, #1
 1072 0022 2068     		ldr	r0, [r4]
 1073 0024 FFF7FEFF 		bl	updateClock4
 1074              	.LVL130:
 222:main.c        ****     selectedNote = 0;
 1075              		.loc 1 222 0
 1076 0028 0022     		movs	r2, #0
 1077 002a 0A4B     		ldr	r3, .L91+12
 1078 002c 5A70     		strb	r2, [r3, #1]
 223:main.c        ****     UART_1_PutString("------------------------------------------\r\n");
 1079              		.loc 1 223 0
 1080 002e 0A4C     		ldr	r4, .L91+16
 1081 0030 2046     		mov	r0, r4
 1082 0032 FFF7FEFF 		bl	UART_1_PutString
 1083              	.LVL131:
 224:main.c        ****     UART_1_PutString("Sistema reiniciado\r\n");
ARM GAS  C:\Users\Fede\AppData\Local\Temp\ccsbcQCm.s 			page 24


 1084              		.loc 1 224 0
 1085 0036 0948     		ldr	r0, .L91+20
 1086 0038 FFF7FEFF 		bl	UART_1_PutString
 1087              	.LVL132:
 225:main.c        ****     UART_1_PutString("------------------------------------------\r\n");
 1088              		.loc 1 225 0
 1089 003c 2046     		mov	r0, r4
 1090 003e FFF7FEFF 		bl	UART_1_PutString
 1091              	.LVL133:
 226:main.c        ****     printWelcome();
 1092              		.loc 1 226 0
 1093 0042 FFF7FEFF 		bl	printWelcome
 1094              	.LVL134:
 1095 0046 10BD     		pop	{r4, pc}
 1096              	.L92:
 1097              		.align	2
 1098              	.L91:
 1099 0048 00000000 		.word	n1
 1100 004c 00000000 		.word	n2
 1101 0050 00000000 		.word	n3
 1102 0054 00000000 		.word	.LANCHOR0
 1103 0058 44000000 		.word	.LC2
 1104 005c B8010000 		.word	.LC11
 1105              		.cfi_endproc
 1106              	.LFE75:
 1107              		.size	resetAll, .-resetAll
 1108              		.section	.text.isr_rx_Interrupt_InterruptCallback,"ax",%progbits
 1109              		.align	2
 1110              		.global	isr_rx_Interrupt_InterruptCallback
 1111              		.thumb
 1112              		.thumb_func
 1113              		.type	isr_rx_Interrupt_InterruptCallback, %function
 1114              	isr_rx_Interrupt_InterruptCallback:
 1115              	.LFB76:
 227:main.c        **** }
 228:main.c        **** 
 229:main.c        **** void isr_rx_Interrupt_InterruptCallback(void) {
 1116              		.loc 1 229 0
 1117              		.cfi_startproc
 1118              		@ args = 0, pretend = 0, frame = 0
 1119              		@ frame_needed = 0, uses_anonymous_args = 0
 1120 0000 08B5     		push	{r3, lr}
 1121              		.cfi_def_cfa_offset 8
 1122              		.cfi_offset 3, -8
 1123              		.cfi_offset 14, -4
 230:main.c        ****     input = UART_1_GetChar();
 1124              		.loc 1 230 0
 1125 0002 FFF7FEFF 		bl	UART_1_GetChar
 1126              	.LVL135:
 1127 0006 8A4B     		ldr	r3, .L145
 1128 0008 1870     		strb	r0, [r3]
 231:main.c        ****     if (selectedNote == 0) {
 1129              		.loc 1 231 0
 1130 000a 8A4B     		ldr	r3, .L145+4
 1131 000c 5B78     		ldrb	r3, [r3, #1]	@ zero_extendqisi2
 1132 000e 6BBB     		cbnz	r3, .L94
 232:main.c        ****         switch(input)
ARM GAS  C:\Users\Fede\AppData\Local\Temp\ccsbcQCm.s 			page 25


 1133              		.loc 1 232 0
 1134 0010 3328     		cmp	r0, #51
 1135 0012 18D0     		beq	.L96
 1136 0014 04D8     		bhi	.L97
 1137 0016 3128     		cmp	r0, #49
 1138 0018 09D0     		beq	.L98
 1139 001a 3228     		cmp	r0, #50
 1140 001c 0DD0     		beq	.L99
 1141 001e 21E0     		b	.L95
 1142              	.L97:
 1143 0020 5228     		cmp	r0, #82
 1144 0022 1CD0     		beq	.L100
 1145 0024 7228     		cmp	r0, #114
 1146 0026 1AD0     		beq	.L100
 1147 0028 3428     		cmp	r0, #52
 1148 002a 12D0     		beq	.L101
 1149 002c 1AE0     		b	.L95
 1150              	.L98:
 233:main.c        ****         {
 234:main.c        ****             case '1':
 235:main.c        ****                 selectedNote = 1;
 1151              		.loc 1 235 0
 1152 002e 0122     		movs	r2, #1
 1153 0030 804B     		ldr	r3, .L145+4
 1154 0032 5A70     		strb	r2, [r3, #1]
 236:main.c        ****                 printUpdateData();
 1155              		.loc 1 236 0
 1156 0034 FFF7FEFF 		bl	printUpdateData
 1157              	.LVL136:
 237:main.c        ****                 break;
 1158              		.loc 1 237 0
 1159 0038 08BD     		pop	{r3, pc}
 1160              	.L99:
 238:main.c        ****             case '2':
 239:main.c        ****                 selectedNote = 2;
 1161              		.loc 1 239 0
 1162 003a 0222     		movs	r2, #2
 1163 003c 7D4B     		ldr	r3, .L145+4
 1164 003e 5A70     		strb	r2, [r3, #1]
 240:main.c        ****                 printUpdateData();
 1165              		.loc 1 240 0
 1166 0040 FFF7FEFF 		bl	printUpdateData
 1167              	.LVL137:
 241:main.c        ****                 break;
 1168              		.loc 1 241 0
 1169 0044 08BD     		pop	{r3, pc}
 1170              	.L96:
 242:main.c        ****             case '3':
 243:main.c        ****                 selectedNote = 3;
 1171              		.loc 1 243 0
 1172 0046 0322     		movs	r2, #3
 1173 0048 7A4B     		ldr	r3, .L145+4
 1174 004a 5A70     		strb	r2, [r3, #1]
 244:main.c        ****                 printUpdateData();
 1175              		.loc 1 244 0
 1176 004c FFF7FEFF 		bl	printUpdateData
 1177              	.LVL138:
ARM GAS  C:\Users\Fede\AppData\Local\Temp\ccsbcQCm.s 			page 26


 245:main.c        ****                 break;
 1178              		.loc 1 245 0
 1179 0050 08BD     		pop	{r3, pc}
 1180              	.L101:
 246:main.c        ****             case '4':
 247:main.c        ****                 selectedNote = 4;
 1181              		.loc 1 247 0
 1182 0052 0422     		movs	r2, #4
 1183 0054 774B     		ldr	r3, .L145+4
 1184 0056 5A70     		strb	r2, [r3, #1]
 248:main.c        ****                 printUpdateData();
 1185              		.loc 1 248 0
 1186 0058 FFF7FEFF 		bl	printUpdateData
 1187              	.LVL139:
 249:main.c        ****                 break;
 1188              		.loc 1 249 0
 1189 005c 08BD     		pop	{r3, pc}
 1190              	.L100:
 250:main.c        ****             case 'r':
 251:main.c        ****             case 'R':
 252:main.c        ****                 resetAll();
 1191              		.loc 1 252 0
 1192 005e FFF7FEFF 		bl	resetAll
 1193              	.LVL140:
 253:main.c        ****                 break;
 1194              		.loc 1 253 0
 1195 0062 08BD     		pop	{r3, pc}
 1196              	.L95:
 254:main.c        ****             default:
 255:main.c        ****                 UART_1_PutString("Not a valid input\r\n");
 1197              		.loc 1 255 0
 1198 0064 7448     		ldr	r0, .L145+8
 1199 0066 FFF7FEFF 		bl	UART_1_PutString
 1200              	.LVL141:
 1201 006a 08BD     		pop	{r3, pc}
 1202              	.L94:
 256:main.c        ****         }
 257:main.c        ****     } else {
 258:main.c        ****         switch(input)
 1203              		.loc 1 258 0
 1204 006c 2B38     		subs	r0, r0, #43
 1205 006e 4728     		cmp	r0, #71
 1206 0070 00F23481 		bhi	.L103
 1207 0074 DFE810F0 		tbh	[pc, r0, lsl #1]
 1208              	.L105:
 1209 0078 D000     		.2byte	(.L104-.L105)/2
 1210 007a 3201     		.2byte	(.L103-.L105)/2
 1211 007c D600     		.2byte	(.L106-.L105)/2
 1212 007e 3201     		.2byte	(.L103-.L105)/2
 1213 0080 3201     		.2byte	(.L103-.L105)/2
 1214 0082 3201     		.2byte	(.L103-.L105)/2
 1215 0084 4800     		.2byte	(.L107-.L105)/2
 1216 0086 5900     		.2byte	(.L108-.L105)/2
 1217 0088 6A00     		.2byte	(.L109-.L105)/2
 1218 008a 7B00     		.2byte	(.L110-.L105)/2
 1219 008c 8C00     		.2byte	(.L111-.L105)/2
 1220 008e 9D00     		.2byte	(.L112-.L105)/2
ARM GAS  C:\Users\Fede\AppData\Local\Temp\ccsbcQCm.s 			page 27


 1221 0090 AE00     		.2byte	(.L113-.L105)/2
 1222 0092 BF00     		.2byte	(.L114-.L105)/2
 1223 0094 3201     		.2byte	(.L103-.L105)/2
 1224 0096 3201     		.2byte	(.L103-.L105)/2
 1225 0098 3201     		.2byte	(.L103-.L105)/2
 1226 009a 3201     		.2byte	(.L103-.L105)/2
 1227 009c 3201     		.2byte	(.L103-.L105)/2
 1228 009e 3201     		.2byte	(.L103-.L105)/2
 1229 00a0 3201     		.2byte	(.L103-.L105)/2
 1230 00a2 3201     		.2byte	(.L103-.L105)/2
 1231 00a4 3201     		.2byte	(.L103-.L105)/2
 1232 00a6 3201     		.2byte	(.L103-.L105)/2
 1233 00a8 3201     		.2byte	(.L103-.L105)/2
 1234 00aa 3201     		.2byte	(.L103-.L105)/2
 1235 00ac 3201     		.2byte	(.L103-.L105)/2
 1236 00ae 3201     		.2byte	(.L103-.L105)/2
 1237 00b0 3201     		.2byte	(.L103-.L105)/2
 1238 00b2 2201     		.2byte	(.L115-.L105)/2
 1239 00b4 3201     		.2byte	(.L103-.L105)/2
 1240 00b6 3201     		.2byte	(.L103-.L105)/2
 1241 00b8 3201     		.2byte	(.L103-.L105)/2
 1242 00ba 1401     		.2byte	(.L116-.L105)/2
 1243 00bc 1B01     		.2byte	(.L117-.L105)/2
 1244 00be 3201     		.2byte	(.L103-.L105)/2
 1245 00c0 3201     		.2byte	(.L103-.L105)/2
 1246 00c2 3201     		.2byte	(.L103-.L105)/2
 1247 00c4 2901     		.2byte	(.L118-.L105)/2
 1248 00c6 2F01     		.2byte	(.L119-.L105)/2
 1249 00c8 3201     		.2byte	(.L103-.L105)/2
 1250 00ca 3201     		.2byte	(.L103-.L105)/2
 1251 00cc 3201     		.2byte	(.L103-.L105)/2
 1252 00ce 3201     		.2byte	(.L103-.L105)/2
 1253 00d0 3201     		.2byte	(.L103-.L105)/2
 1254 00d2 3201     		.2byte	(.L103-.L105)/2
 1255 00d4 3201     		.2byte	(.L103-.L105)/2
 1256 00d6 3201     		.2byte	(.L103-.L105)/2
 1257 00d8 3201     		.2byte	(.L103-.L105)/2
 1258 00da 3201     		.2byte	(.L103-.L105)/2
 1259 00dc 3201     		.2byte	(.L103-.L105)/2
 1260 00de 3201     		.2byte	(.L103-.L105)/2
 1261 00e0 3201     		.2byte	(.L103-.L105)/2
 1262 00e2 3201     		.2byte	(.L103-.L105)/2
 1263 00e4 3201     		.2byte	(.L103-.L105)/2
 1264 00e6 3201     		.2byte	(.L103-.L105)/2
 1265 00e8 3201     		.2byte	(.L103-.L105)/2
 1266 00ea 3201     		.2byte	(.L103-.L105)/2
 1267 00ec 3201     		.2byte	(.L103-.L105)/2
 1268 00ee 3201     		.2byte	(.L103-.L105)/2
 1269 00f0 3201     		.2byte	(.L103-.L105)/2
 1270 00f2 2201     		.2byte	(.L115-.L105)/2
 1271 00f4 3201     		.2byte	(.L103-.L105)/2
 1272 00f6 3201     		.2byte	(.L103-.L105)/2
 1273 00f8 3201     		.2byte	(.L103-.L105)/2
 1274 00fa 1401     		.2byte	(.L116-.L105)/2
 1275 00fc 1B01     		.2byte	(.L117-.L105)/2
 1276 00fe 3201     		.2byte	(.L103-.L105)/2
 1277 0100 3201     		.2byte	(.L103-.L105)/2
ARM GAS  C:\Users\Fede\AppData\Local\Temp\ccsbcQCm.s 			page 28


 1278 0102 3201     		.2byte	(.L103-.L105)/2
 1279 0104 2901     		.2byte	(.L118-.L105)/2
 1280 0106 2F01     		.2byte	(.L119-.L105)/2
 1281              		.p2align 1
 1282              	.L107:
 259:main.c        ****         {
 260:main.c        ****             case '1':
 261:main.c        ****                 updateClock((selectedNoteRange == 0) ? n1 : ((selectedNoteRange == 1) ? d1 : l1), 1
 1283              		.loc 1 261 0
 1284 0108 4C4B     		ldr	r3, .L145+12
 1285 010a 1B78     		ldrb	r3, [r3]	@ zero_extendqisi2
 1286 010c 3BB1     		cbz	r3, .L120
 1287              		.loc 1 261 0 is_stmt 0 discriminator 1
 1288 010e 012B     		cmp	r3, #1
 1289 0110 02D1     		bne	.L121
 1290              		.loc 1 261 0 discriminator 3
 1291 0112 4B4B     		ldr	r3, .L145+16
 1292 0114 1868     		ldr	r0, [r3]
 1293 0116 04E0     		b	.L122
 1294              	.L121:
 1295              		.loc 1 261 0 discriminator 4
 1296 0118 4A4B     		ldr	r3, .L145+20
 1297 011a 1868     		ldr	r0, [r3]
 1298 011c 01E0     		b	.L122
 1299              	.L120:
 1300              		.loc 1 261 0 discriminator 2
 1301 011e 4A4B     		ldr	r3, .L145+24
 1302 0120 1868     		ldr	r0, [r3]
 1303              	.L122:
 1304              		.loc 1 261 0 discriminator 8
 1305 0122 0121     		movs	r1, #1
 1306 0124 FFF7FEFF 		bl	updateClock
 1307              	.LVL142:
 262:main.c        ****                 break;
 1308              		.loc 1 262 0 is_stmt 1 discriminator 8
 1309 0128 08BD     		pop	{r3, pc}
 1310              	.L108:
 263:main.c        ****             case '2':
 264:main.c        ****                 updateClock((selectedNoteRange == 0) ? n2 : ((selectedNoteRange == 1) ? d2 : l2), 1
 1311              		.loc 1 264 0
 1312 012a 444B     		ldr	r3, .L145+12
 1313 012c 1B78     		ldrb	r3, [r3]	@ zero_extendqisi2
 1314 012e 3BB1     		cbz	r3, .L123
 1315              		.loc 1 264 0 is_stmt 0 discriminator 1
 1316 0130 012B     		cmp	r3, #1
 1317 0132 02D1     		bne	.L124
 1318              		.loc 1 264 0 discriminator 3
 1319 0134 454B     		ldr	r3, .L145+28
 1320 0136 1868     		ldr	r0, [r3]
 1321 0138 04E0     		b	.L125
 1322              	.L124:
 1323              		.loc 1 264 0 discriminator 4
 1324 013a 454B     		ldr	r3, .L145+32
 1325 013c 1868     		ldr	r0, [r3]
 1326 013e 01E0     		b	.L125
 1327              	.L123:
 1328              		.loc 1 264 0 discriminator 2
ARM GAS  C:\Users\Fede\AppData\Local\Temp\ccsbcQCm.s 			page 29


 1329 0140 444B     		ldr	r3, .L145+36
 1330 0142 1868     		ldr	r0, [r3]
 1331              	.L125:
 1332              		.loc 1 264 0 discriminator 8
 1333 0144 0121     		movs	r1, #1
 1334 0146 FFF7FEFF 		bl	updateClock
 1335              	.LVL143:
 265:main.c        ****                 break;
 1336              		.loc 1 265 0 is_stmt 1 discriminator 8
 1337 014a 08BD     		pop	{r3, pc}
 1338              	.L109:
 266:main.c        ****             case '3':
 267:main.c        ****                 updateClock((selectedNoteRange == 0) ? n3 : ((selectedNoteRange == 1) ? d3 : l3), 1
 1339              		.loc 1 267 0
 1340 014c 3B4B     		ldr	r3, .L145+12
 1341 014e 1B78     		ldrb	r3, [r3]	@ zero_extendqisi2
 1342 0150 3BB1     		cbz	r3, .L126
 1343              		.loc 1 267 0 is_stmt 0 discriminator 1
 1344 0152 012B     		cmp	r3, #1
 1345 0154 02D1     		bne	.L127
 1346              		.loc 1 267 0 discriminator 3
 1347 0156 404B     		ldr	r3, .L145+40
 1348 0158 1868     		ldr	r0, [r3]
 1349 015a 04E0     		b	.L128
 1350              	.L127:
 1351              		.loc 1 267 0 discriminator 4
 1352 015c 3F4B     		ldr	r3, .L145+44
 1353 015e 1868     		ldr	r0, [r3]
 1354 0160 01E0     		b	.L128
 1355              	.L126:
 1356              		.loc 1 267 0 discriminator 2
 1357 0162 3F4B     		ldr	r3, .L145+48
 1358 0164 1868     		ldr	r0, [r3]
 1359              	.L128:
 1360              		.loc 1 267 0 discriminator 8
 1361 0166 0121     		movs	r1, #1
 1362 0168 FFF7FEFF 		bl	updateClock
 1363              	.LVL144:
 268:main.c        ****                 break;
 1364              		.loc 1 268 0 is_stmt 1 discriminator 8
 1365 016c 08BD     		pop	{r3, pc}
 1366              	.L110:
 269:main.c        ****             case '4':
 270:main.c        ****                 updateClock((selectedNoteRange == 0) ? n4 : ((selectedNoteRange == 1) ? d4 : l4), 1
 1367              		.loc 1 270 0
 1368 016e 334B     		ldr	r3, .L145+12
 1369 0170 1B78     		ldrb	r3, [r3]	@ zero_extendqisi2
 1370 0172 3BB1     		cbz	r3, .L129
 1371              		.loc 1 270 0 is_stmt 0 discriminator 1
 1372 0174 012B     		cmp	r3, #1
 1373 0176 02D1     		bne	.L130
 1374              		.loc 1 270 0 discriminator 3
 1375 0178 3A4B     		ldr	r3, .L145+52
 1376 017a 1868     		ldr	r0, [r3]
 1377 017c 04E0     		b	.L131
 1378              	.L130:
 1379              		.loc 1 270 0 discriminator 4
ARM GAS  C:\Users\Fede\AppData\Local\Temp\ccsbcQCm.s 			page 30


 1380 017e 3A4B     		ldr	r3, .L145+56
 1381 0180 1868     		ldr	r0, [r3]
 1382 0182 01E0     		b	.L131
 1383              	.L129:
 1384              		.loc 1 270 0 discriminator 2
 1385 0184 394B     		ldr	r3, .L145+60
 1386 0186 1868     		ldr	r0, [r3]
 1387              	.L131:
 1388              		.loc 1 270 0 discriminator 8
 1389 0188 0121     		movs	r1, #1
 1390 018a FFF7FEFF 		bl	updateClock
 1391              	.LVL145:
 271:main.c        ****                 break;
 1392              		.loc 1 271 0 is_stmt 1 discriminator 8
 1393 018e 08BD     		pop	{r3, pc}
 1394              	.L111:
 272:main.c        ****             case '5':
 273:main.c        ****                 updateClock((selectedNoteRange == 0) ? n5 : ((selectedNoteRange == 1) ? d5 : l5), 1
 1395              		.loc 1 273 0
 1396 0190 2A4B     		ldr	r3, .L145+12
 1397 0192 1B78     		ldrb	r3, [r3]	@ zero_extendqisi2
 1398 0194 3BB1     		cbz	r3, .L132
 1399              		.loc 1 273 0 is_stmt 0 discriminator 1
 1400 0196 012B     		cmp	r3, #1
 1401 0198 02D1     		bne	.L133
 1402              		.loc 1 273 0 discriminator 3
 1403 019a 354B     		ldr	r3, .L145+64
 1404 019c 1868     		ldr	r0, [r3]
 1405 019e 04E0     		b	.L134
 1406              	.L133:
 1407              		.loc 1 273 0 discriminator 4
 1408 01a0 344B     		ldr	r3, .L145+68
 1409 01a2 1868     		ldr	r0, [r3]
 1410 01a4 01E0     		b	.L134
 1411              	.L132:
 1412              		.loc 1 273 0 discriminator 2
 1413 01a6 344B     		ldr	r3, .L145+72
 1414 01a8 1868     		ldr	r0, [r3]
 1415              	.L134:
 1416              		.loc 1 273 0 discriminator 8
 1417 01aa 0121     		movs	r1, #1
 1418 01ac FFF7FEFF 		bl	updateClock
 1419              	.LVL146:
 274:main.c        ****                 break;
 1420              		.loc 1 274 0 is_stmt 1 discriminator 8
 1421 01b0 08BD     		pop	{r3, pc}
 1422              	.L112:
 275:main.c        ****             case '6':
 276:main.c        ****                 updateClock((selectedNoteRange == 0) ? n6 : ((selectedNoteRange == 1) ? d6 : l6), 1
 1423              		.loc 1 276 0
 1424 01b2 224B     		ldr	r3, .L145+12
 1425 01b4 1B78     		ldrb	r3, [r3]	@ zero_extendqisi2
 1426 01b6 3BB1     		cbz	r3, .L135
 1427              		.loc 1 276 0 is_stmt 0 discriminator 1
 1428 01b8 012B     		cmp	r3, #1
 1429 01ba 02D1     		bne	.L136
 1430              		.loc 1 276 0 discriminator 3
ARM GAS  C:\Users\Fede\AppData\Local\Temp\ccsbcQCm.s 			page 31


 1431 01bc 2F4B     		ldr	r3, .L145+76
 1432 01be 1868     		ldr	r0, [r3]
 1433 01c0 04E0     		b	.L137
 1434              	.L136:
 1435              		.loc 1 276 0 discriminator 4
 1436 01c2 2F4B     		ldr	r3, .L145+80
 1437 01c4 1868     		ldr	r0, [r3]
 1438 01c6 01E0     		b	.L137
 1439              	.L135:
 1440              		.loc 1 276 0 discriminator 2
 1441 01c8 2E4B     		ldr	r3, .L145+84
 1442 01ca 1868     		ldr	r0, [r3]
 1443              	.L137:
 1444              		.loc 1 276 0 discriminator 8
 1445 01cc 0121     		movs	r1, #1
 1446 01ce FFF7FEFF 		bl	updateClock
 1447              	.LVL147:
 277:main.c        ****                 break;
 1448              		.loc 1 277 0 is_stmt 1 discriminator 8
 1449 01d2 08BD     		pop	{r3, pc}
 1450              	.L113:
 278:main.c        ****             case '7':
 279:main.c        ****                 updateClock((selectedNoteRange == 0) ? n7 : ((selectedNoteRange == 1) ? d7 : l7), 1
 1451              		.loc 1 279 0
 1452 01d4 194B     		ldr	r3, .L145+12
 1453 01d6 1B78     		ldrb	r3, [r3]	@ zero_extendqisi2
 1454 01d8 3BB1     		cbz	r3, .L138
 1455              		.loc 1 279 0 is_stmt 0 discriminator 1
 1456 01da 012B     		cmp	r3, #1
 1457 01dc 02D1     		bne	.L139
 1458              		.loc 1 279 0 discriminator 3
 1459 01de 2A4B     		ldr	r3, .L145+88
 1460 01e0 1868     		ldr	r0, [r3]
 1461 01e2 04E0     		b	.L140
 1462              	.L139:
 1463              		.loc 1 279 0 discriminator 4
 1464 01e4 294B     		ldr	r3, .L145+92
 1465 01e6 1868     		ldr	r0, [r3]
 1466 01e8 01E0     		b	.L140
 1467              	.L138:
 1468              		.loc 1 279 0 discriminator 2
 1469 01ea 294B     		ldr	r3, .L145+96
 1470 01ec 1868     		ldr	r0, [r3]
 1471              	.L140:
 1472              		.loc 1 279 0 discriminator 8
 1473 01ee 0121     		movs	r1, #1
 1474 01f0 FFF7FEFF 		bl	updateClock
 1475              	.LVL148:
 280:main.c        ****                 break;
 1476              		.loc 1 280 0 is_stmt 1 discriminator 8
 1477 01f4 08BD     		pop	{r3, pc}
 1478              	.L114:
 281:main.c        ****             case '8':
 282:main.c        ****                 updateClock((selectedNoteRange == 0) ? n8 : ((selectedNoteRange == 1) ? d8 : l8), 1
 1479              		.loc 1 282 0
 1480 01f6 114B     		ldr	r3, .L145+12
 1481 01f8 1B78     		ldrb	r3, [r3]	@ zero_extendqisi2
ARM GAS  C:\Users\Fede\AppData\Local\Temp\ccsbcQCm.s 			page 32


 1482 01fa 3BB1     		cbz	r3, .L141
 1483              		.loc 1 282 0 is_stmt 0 discriminator 1
 1484 01fc 012B     		cmp	r3, #1
 1485 01fe 02D1     		bne	.L142
 1486              		.loc 1 282 0 discriminator 3
 1487 0200 244B     		ldr	r3, .L145+100
 1488 0202 1868     		ldr	r0, [r3]
 1489 0204 04E0     		b	.L143
 1490              	.L142:
 1491              		.loc 1 282 0 discriminator 4
 1492 0206 244B     		ldr	r3, .L145+104
 1493 0208 1868     		ldr	r0, [r3]
 1494 020a 01E0     		b	.L143
 1495              	.L141:
 1496              		.loc 1 282 0 discriminator 2
 1497 020c 234B     		ldr	r3, .L145+108
 1498 020e 1868     		ldr	r0, [r3]
 1499              	.L143:
 1500              		.loc 1 282 0 discriminator 8
 1501 0210 0121     		movs	r1, #1
 1502 0212 FFF7FEFF 		bl	updateClock
 1503              	.LVL149:
 283:main.c        ****                 break;
 1504              		.loc 1 283 0 is_stmt 1 discriminator 8
 1505 0216 08BD     		pop	{r3, pc}
 1506              	.L104:
 284:main.c        ****             case '+':
 285:main.c        ****                 updateClock(-1, 0);
 1507              		.loc 1 285 0
 1508 0218 0021     		movs	r1, #0
 1509 021a 4FF0FF30 		mov	r0, #-1
 1510 021e FFF7FEFF 		bl	updateClock
 1511              	.LVL150:
 286:main.c        ****                 break;
 1512              		.loc 1 286 0
 1513 0222 08BD     		pop	{r3, pc}
 1514              	.L106:
 287:main.c        ****             case '-':
 288:main.c        ****                 updateClock(1, 0);
 1515              		.loc 1 288 0
 1516 0224 0021     		movs	r1, #0
 1517 0226 0120     		movs	r0, #1
 1518 0228 FFF7FEFF 		bl	updateClock
 1519              	.LVL151:
 289:main.c        ****                 break;
 1520              		.loc 1 289 0
 1521 022c 08BD     		pop	{r3, pc}
 1522              	.L146:
 1523 022e 00BF     		.align	2
 1524              	.L145:
 1525 0230 00000000 		.word	input
 1526 0234 00000000 		.word	.LANCHOR0
 1527 0238 D0010000 		.word	.LC12
 1528 023c 00000000 		.word	.LANCHOR1
 1529 0240 00000000 		.word	d1
 1530 0244 00000000 		.word	l1
 1531 0248 00000000 		.word	n1
ARM GAS  C:\Users\Fede\AppData\Local\Temp\ccsbcQCm.s 			page 33


 1532 024c 00000000 		.word	d2
 1533 0250 00000000 		.word	l2
 1534 0254 00000000 		.word	n2
 1535 0258 00000000 		.word	d3
 1536 025c 00000000 		.word	l3
 1537 0260 00000000 		.word	n3
 1538 0264 00000000 		.word	d4
 1539 0268 00000000 		.word	l4
 1540 026c 00000000 		.word	n4
 1541 0270 00000000 		.word	d5
 1542 0274 00000000 		.word	l5
 1543 0278 00000000 		.word	n5
 1544 027c 00000000 		.word	d6
 1545 0280 00000000 		.word	l6
 1546 0284 00000000 		.word	n6
 1547 0288 00000000 		.word	d7
 1548 028c 00000000 		.word	l7
 1549 0290 00000000 		.word	n7
 1550 0294 00000000 		.word	d8
 1551 0298 00000000 		.word	l8
 1552 029c 00000000 		.word	n8
 1553              	.L116:
 290:main.c        ****             case 'l':
 291:main.c        ****             case 'L':
 292:main.c        ****                 selectedNoteRange = 2;
 1554              		.loc 1 292 0
 1555 02a0 0222     		movs	r2, #2
 1556 02a2 104B     		ldr	r3, .L147
 1557 02a4 1A70     		strb	r2, [r3]
 293:main.c        ****                 UART_1_PutString("Selected note range: LOW\r\n");
 1558              		.loc 1 293 0
 1559 02a6 1048     		ldr	r0, .L147+4
 1560 02a8 FFF7FEFF 		bl	UART_1_PutString
 1561              	.LVL152:
 294:main.c        ****                 break;
 1562              		.loc 1 294 0
 1563 02ac 08BD     		pop	{r3, pc}
 1564              	.L117:
 295:main.c        ****             case 'm':
 296:main.c        ****             case 'M':
 297:main.c        ****                 selectedNoteRange = 1;
 1565              		.loc 1 297 0
 1566 02ae 0122     		movs	r2, #1
 1567 02b0 0C4B     		ldr	r3, .L147
 1568 02b2 1A70     		strb	r2, [r3]
 298:main.c        ****                 UART_1_PutString("Selected note range: MEDIUM\r\n");
 1569              		.loc 1 298 0
 1570 02b4 0D48     		ldr	r0, .L147+8
 1571 02b6 FFF7FEFF 		bl	UART_1_PutString
 1572              	.LVL153:
 299:main.c        ****                 break;
 1573              		.loc 1 299 0
 1574 02ba 08BD     		pop	{r3, pc}
 1575              	.L115:
 300:main.c        ****             case 'h':
 301:main.c        ****             case 'H':
 302:main.c        ****                 selectedNoteRange = 0;
ARM GAS  C:\Users\Fede\AppData\Local\Temp\ccsbcQCm.s 			page 34


 1576              		.loc 1 302 0
 1577 02bc 0022     		movs	r2, #0
 1578 02be 094B     		ldr	r3, .L147
 1579 02c0 1A70     		strb	r2, [r3]
 303:main.c        ****                 UART_1_PutString("Selected note range: HIGH\r\n");
 1580              		.loc 1 303 0
 1581 02c2 0B48     		ldr	r0, .L147+12
 1582 02c4 FFF7FEFF 		bl	UART_1_PutString
 1583              	.LVL154:
 304:main.c        ****                 break;
 1584              		.loc 1 304 0
 1585 02c8 08BD     		pop	{r3, pc}
 1586              	.L118:
 305:main.c        ****             case 'q':
 306:main.c        ****             case 'Q':
 307:main.c        ****                 printWelcome();
 1587              		.loc 1 307 0
 1588 02ca FFF7FEFF 		bl	printWelcome
 1589              	.LVL155:
 308:main.c        ****                 selectedNote = 0;
 1590              		.loc 1 308 0
 1591 02ce 0022     		movs	r2, #0
 1592 02d0 084B     		ldr	r3, .L147+16
 1593 02d2 5A70     		strb	r2, [r3, #1]
 309:main.c        ****                 break;
 1594              		.loc 1 309 0
 1595 02d4 08BD     		pop	{r3, pc}
 1596              	.L119:
 310:main.c        ****             case 'r':
 311:main.c        ****             case 'R':
 312:main.c        ****                 resetAll();
 1597              		.loc 1 312 0
 1598 02d6 FFF7FEFF 		bl	resetAll
 1599              	.LVL156:
 313:main.c        ****                 break;
 1600              		.loc 1 313 0
 1601 02da 08BD     		pop	{r3, pc}
 1602              	.L103:
 314:main.c        ****             default:
 315:main.c        ****                 UART_1_PutString("Not a valid input\r\n");
 1603              		.loc 1 315 0
 1604 02dc 0648     		ldr	r0, .L147+20
 1605 02de FFF7FEFF 		bl	UART_1_PutString
 1606              	.LVL157:
 1607 02e2 08BD     		pop	{r3, pc}
 1608              	.L148:
 1609              		.align	2
 1610              	.L147:
 1611 02e4 00000000 		.word	.LANCHOR1
 1612 02e8 E4010000 		.word	.LC13
 1613 02ec 00020000 		.word	.LC14
 1614 02f0 20020000 		.word	.LC15
 1615 02f4 00000000 		.word	.LANCHOR0
 1616 02f8 D0010000 		.word	.LC12
 1617              		.cfi_endproc
 1618              	.LFE76:
 1619              		.size	isr_rx_Interrupt_InterruptCallback, .-isr_rx_Interrupt_InterruptCallback
ARM GAS  C:\Users\Fede\AppData\Local\Temp\ccsbcQCm.s 			page 35


 1620              		.section	.text.initCP,"ax",%progbits
 1621              		.align	2
 1622              		.global	initCP
 1623              		.thumb
 1624              		.thumb_func
 1625              		.type	initCP, %function
 1626              	initCP:
 1627              	.LFB77:
 316:main.c        ****         }
 317:main.c        ****     }
 318:main.c        **** }
 319:main.c        **** 
 320:main.c        **** 
 321:main.c        **** void initCP(void)
 322:main.c        **** {
 1628              		.loc 1 322 0
 1629              		.cfi_startproc
 1630              		@ args = 0, pretend = 0, frame = 0
 1631              		@ frame_needed = 0, uses_anonymous_args = 0
 1632 0000 08B5     		push	{r3, lr}
 1633              		.cfi_def_cfa_offset 8
 1634              		.cfi_offset 3, -8
 1635              		.cfi_offset 14, -4
 323:main.c        ****     UART_1_Start();
 1636              		.loc 1 323 0
 1637 0002 FFF7FEFF 		bl	UART_1_Start
 1638              	.LVL158:
 324:main.c        ****     /* delay for the UART to initialize */
 325:main.c        ****     CyDelay(1LU); /* msec */
 1639              		.loc 1 325 0
 1640 0006 0120     		movs	r0, #1
 1641 0008 FFF7FEFF 		bl	CyDelay
 1642              	.LVL159:
 1643 000c 08BD     		pop	{r3, pc}
 1644              		.cfi_endproc
 1645              	.LFE77:
 1646              		.size	initCP, .-initCP
 1647 000e 00BF     		.section	.text.toggleLED,"ax",%progbits
 1648              		.align	2
 1649              		.global	toggleLED
 1650              		.thumb
 1651              		.thumb_func
 1652              		.type	toggleLED, %function
 1653              	toggleLED:
 1654              	.LFB78:
 326:main.c        **** }
 327:main.c        **** 
 328:main.c        **** 
 329:main.c        **** void toggleLED(void){
 1655              		.loc 1 329 0
 1656              		.cfi_startproc
 1657              		@ args = 0, pretend = 0, frame = 0
 1658              		@ frame_needed = 0, uses_anonymous_args = 0
 1659 0000 08B5     		push	{r3, lr}
 1660              		.cfi_def_cfa_offset 8
 1661              		.cfi_offset 3, -8
 1662              		.cfi_offset 14, -4
ARM GAS  C:\Users\Fede\AppData\Local\Temp\ccsbcQCm.s 			page 36


 330:main.c        ****     Pin_Led_Write(Pin_Led_Read() ^ 1U);
 1663              		.loc 1 330 0
 1664 0002 FFF7FEFF 		bl	Pin_Led_Read
 1665              	.LVL160:
 1666 0006 80F00100 		eor	r0, r0, #1
 1667 000a C0B2     		uxtb	r0, r0
 1668 000c FFF7FEFF 		bl	Pin_Led_Write
 1669              	.LVL161:
 1670 0010 08BD     		pop	{r3, pc}
 1671              		.cfi_endproc
 1672              	.LFE78:
 1673              		.size	toggleLED, .-toggleLED
 1674 0012 00BF     		.section	.text.LongitudNota,"ax",%progbits
 1675              		.align	2
 1676              		.global	LongitudNota
 1677              		.thumb
 1678              		.thumb_func
 1679              		.type	LongitudNota, %function
 1680              	LongitudNota:
 1681              	.LFB79:
 331:main.c        **** }
 332:main.c        **** 
 333:main.c        **** uint16 LongitudNota(){
 1682              		.loc 1 333 0
 1683              		.cfi_startproc
 1684              		@ args = 0, pretend = 0, frame = 0
 1685              		@ frame_needed = 0, uses_anonymous_args = 0
 1686 0000 10B5     		push	{r4, lr}
 1687              		.cfi_def_cfa_offset 8
 1688              		.cfi_offset 4, -8
 1689              		.cfi_offset 14, -4
 334:main.c        ****     //ADC_LongitudNota_Wakeup();
 335:main.c        ****     ADC_LongitudNota_StartConvert();
 1690              		.loc 1 335 0
 1691 0002 FFF7FEFF 		bl	ADC_LongitudNota_StartConvert
 1692              	.LVL162:
 336:main.c        ****     ADC_LongitudNota_IsEndConversion(ADC_LongitudNota_WAIT_FOR_RESULT);
 1693              		.loc 1 336 0
 1694 0006 0020     		movs	r0, #0
 1695 0008 FFF7FEFF 		bl	ADC_LongitudNota_IsEndConversion
 1696              	.LVL163:
 337:main.c        ****     int Res = ADC_LongitudNota_GetResult16();
 1697              		.loc 1 337 0
 1698 000c FFF7FEFF 		bl	ADC_LongitudNota_GetResult16
 1699              	.LVL164:
 1700 0010 0446     		mov	r4, r0
 1701              	.LVL165:
 338:main.c        ****     ADC_LongitudNota_StopConvert();
 1702              		.loc 1 338 0
 1703 0012 FFF7FEFF 		bl	ADC_LongitudNota_StopConvert
 1704              	.LVL166:
 339:main.c        ****     //ADC_LongitudNota_Sleep();
 340:main.c        ****     
 341:main.c        ****     return Res;
 342:main.c        **** }
 1705              		.loc 1 342 0
 1706 0016 A0B2     		uxth	r0, r4
ARM GAS  C:\Users\Fede\AppData\Local\Temp\ccsbcQCm.s 			page 37


 1707 0018 10BD     		pop	{r4, pc}
 1708              		.cfi_endproc
 1709              	.LFE79:
 1710              		.size	LongitudNota, .-LongitudNota
 1711 001a 00BF     		.section	.text.main,"ax",%progbits
 1712              		.align	2
 1713              		.global	main
 1714              		.thumb
 1715              		.thumb_func
 1716              		.type	main, %function
 1717              	main:
 1718              	.LFB80:
 343:main.c        **** 
 344:main.c        **** int main(void)
 345:main.c        **** {
 1719              		.loc 1 345 0
 1720              		.cfi_startproc
 1721              		@ args = 0, pretend = 0, frame = 0
 1722              		@ frame_needed = 0, uses_anonymous_args = 0
 1723 0000 10B5     		push	{r4, lr}
 1724              		.cfi_def_cfa_offset 8
 1725              		.cfi_offset 4, -8
 1726              		.cfi_offset 14, -4
 346:main.c        ****     setNotes();
 1727              		.loc 1 346 0
 1728 0002 FFF7FEFF 		bl	setNotes
 1729              	.LVL167:
 347:main.c        ****     initCP();
 1730              		.loc 1 347 0
 1731 0006 FFF7FEFF 		bl	initCP
 1732              	.LVL168:
 348:main.c        ****     resetAll();
 1733              		.loc 1 348 0
 1734 000a FFF7FEFF 		bl	resetAll
 1735              	.LVL169:
 349:main.c        ****     CyGlobalIntEnable;
 1736              		.loc 1 349 0
 1737              		.syntax unified
 1738              	@ 349 "main.c" 1
 1739 000e 62B6     		CPSIE   i
 1740              	@ 0 "" 2
 350:main.c        ****     isr_timer_Start();
 1741              		.loc 1 350 0
 1742              		.thumb
 1743              		.syntax unified
 1744 0010 FFF7FEFF 		bl	isr_timer_Start
 1745              	.LVL170:
 351:main.c        ****     Timer1_Start();
 1746              		.loc 1 351 0
 1747 0014 FFF7FEFF 		bl	Timer1_Start
 1748              	.LVL171:
 352:main.c        ****     isr_rx_Start();
 1749              		.loc 1 352 0
 1750 0018 FFF7FEFF 		bl	isr_rx_Start
 1751              	.LVL172:
 353:main.c        ****     isr_rx_SetVector(&(isr_rx_Interrupt));
 1752              		.loc 1 353 0
ARM GAS  C:\Users\Fede\AppData\Local\Temp\ccsbcQCm.s 			page 38


 1753 001c 1B48     		ldr	r0, .L161
 1754 001e FFF7FEFF 		bl	isr_rx_SetVector
 1755              	.LVL173:
 354:main.c        ****     
 355:main.c        ****     WaveDAC8_1_Start();
 1756              		.loc 1 355 0
 1757 0022 FFF7FEFF 		bl	WaveDAC8_1_Start
 1758              	.LVL174:
 356:main.c        ****     Opamp_1_Start();
 1759              		.loc 1 356 0
 1760 0026 FFF7FEFF 		bl	Opamp_1_Start
 1761              	.LVL175:
 357:main.c        ****     PWM_1_Start();
 1762              		.loc 1 357 0
 1763 002a FFF7FEFF 		bl	PWM_1_Start
 1764              	.LVL176:
 358:main.c        ****     ADC_LongitudNota_Start();
 1765              		.loc 1 358 0
 1766 002e FFF7FEFF 		bl	ADC_LongitudNota_Start
 1767              	.LVL177:
 1768              	.L158:
 359:main.c        ****     
 360:main.c        ****     for(;;)
 361:main.c        ****     {
 362:main.c        ****         if(tenthSecond) {
 1769              		.loc 1 362 0
 1770 0032 174B     		ldr	r3, .L161+4
 1771 0034 1B78     		ldrb	r3, [r3]	@ zero_extendqisi2
 1772 0036 0BB3     		cbz	r3, .L156
 1773              	.LBB2:
 363:main.c        ****             Timer1_ReadStatusRegister();
 1774              		.loc 1 363 0
 1775 0038 FFF7FEFF 		bl	Timer1_ReadStatusRegister
 1776              	.LVL178:
 364:main.c        ****             tenthSecond = 0U;
 1777              		.loc 1 364 0
 1778 003c 0022     		movs	r2, #0
 1779 003e 144B     		ldr	r3, .L161+4
 1780 0040 1A70     		strb	r2, [r3]
 365:main.c        ****             
 366:main.c        ****             uint16 pe = LongitudNota();
 1781              		.loc 1 366 0
 1782 0042 FFF7FEFF 		bl	LongitudNota
 1783              	.LVL179:
 1784 0046 0446     		mov	r4, r0
 1785              	.LVL180:
 367:main.c        ****             if ((pe > 10) && (pe < 4000) && 
 1786              		.loc 1 367 0
 1787 0048 A0F10B03 		sub	r3, r0, #11
 1788 004c 9BB2     		uxth	r3, r3
 1789 004e 40F69472 		movw	r2, #3988
 1790 0052 9342     		cmp	r3, r2
 1791 0054 12D8     		bhi	.L156
 368:main.c        ****             ((oldPeriod < pe - 20) || (oldPeriod > pe + 20))) {
 1792              		.loc 1 368 0 discriminator 1
 1793 0056 0F4B     		ldr	r3, .L161+8
 1794 0058 1B88     		ldrh	r3, [r3]
ARM GAS  C:\Users\Fede\AppData\Local\Temp\ccsbcQCm.s 			page 39


 1795 005a A0F11402 		sub	r2, r0, #20
 367:main.c        ****             if ((pe > 10) && (pe < 4000) && 
 1796              		.loc 1 367 0 discriminator 1
 1797 005e 9342     		cmp	r3, r2
 1798 0060 03DB     		blt	.L157
 1799              		.loc 1 368 0
 1800 0062 00F11402 		add	r2, r0, #20
 1801 0066 9342     		cmp	r3, r2
 1802 0068 08DD     		ble	.L156
 1803              	.L157:
 369:main.c        ****                 oldPeriod = pe;
 1804              		.loc 1 369 0
 1805 006a 0A4B     		ldr	r3, .L161+8
 1806 006c 1C80     		strh	r4, [r3]	@ movhi
 370:main.c        ****                 PWM_1_WritePeriod(pe);
 1807              		.loc 1 370 0
 1808 006e 2046     		mov	r0, r4
 1809              	.LVL181:
 1810 0070 FFF7FEFF 		bl	PWM_1_WritePeriod
 1811              	.LVL182:
 371:main.c        ****                 PWM_1_WriteCompare(pe/2);
 1812              		.loc 1 371 0
 1813 0074 C4F34F00 		ubfx	r0, r4, #1, #16
 1814 0078 FFF7FEFF 		bl	PWM_1_WriteCompare
 1815              	.LVL183:
 1816              	.L156:
 1817              	.LBE2:
 372:main.c        ****                 //printGlobalPeriod(pe);
 373:main.c        ****             }
 374:main.c        ****             
 375:main.c        ****         }
 376:main.c        ****         if(oneSecond) {
 1818              		.loc 1 376 0
 1819 007c 064B     		ldr	r3, .L161+12
 1820 007e 1B78     		ldrb	r3, [r3]	@ zero_extendqisi2
 1821 0080 002B     		cmp	r3, #0
 1822 0082 D6D0     		beq	.L158
 377:main.c        ****             oneSecond = 0U;
 1823              		.loc 1 377 0
 1824 0084 0022     		movs	r2, #0
 1825 0086 044B     		ldr	r3, .L161+12
 1826 0088 1A70     		strb	r2, [r3]
 1827 008a D2E7     		b	.L158
 1828              	.L162:
 1829              		.align	2
 1830              	.L161:
 1831 008c 00000000 		.word	isr_rx_Interrupt
 1832 0090 00000000 		.word	tenthSecond
 1833 0094 00000000 		.word	oldPeriod
 1834 0098 00000000 		.word	oneSecond
 1835              		.cfi_endproc
 1836              	.LFE80:
 1837              		.size	main, .-main
 1838              		.comm	d8,4,4
 1839              		.comm	d7,4,4
 1840              		.comm	d6,4,4
 1841              		.comm	d5,4,4
ARM GAS  C:\Users\Fede\AppData\Local\Temp\ccsbcQCm.s 			page 40


 1842              		.comm	d4,4,4
 1843              		.comm	d3,4,4
 1844              		.comm	d2,4,4
 1845              		.comm	d1,4,4
 1846              		.comm	l8,4,4
 1847              		.comm	l7,4,4
 1848              		.comm	l6,4,4
 1849              		.comm	l5,4,4
 1850              		.comm	l4,4,4
 1851              		.comm	l3,4,4
 1852              		.comm	l2,4,4
 1853              		.comm	l1,4,4
 1854              		.comm	n8,4,4
 1855              		.comm	n7,4,4
 1856              		.comm	n6,4,4
 1857              		.comm	n5,4,4
 1858              		.comm	n4,4,4
 1859              		.comm	n3,4,4
 1860              		.comm	n2,4,4
 1861              		.comm	n1,4,4
 1862              		.comm	cycle,4,4
 1863              		.global	sampling
 1864              		.global	frq
 1865              		.global	selectedNoteRange
 1866              		.global	selectedNote
 1867              		.comm	input,1,1
 1868              		.comm	msg,40,4
 1869              		.comm	oldPeriod,2,2
 1870              		.comm	oneSecond,1,1
 1871              		.comm	tenthSecond,1,1
 1872              		.comm	change,1,1
 1873              		.comm	readed,1,1
 1874              		.section	.rodata
 1875              		.align	2
 1876              		.type	sampling, %object
 1877              		.size	sampling, 2
 1878              	sampling:
 1879 0000 1400     		.short	20
 1880 0002 0000     		.space	2
 1881              		.type	frq, %object
 1882              		.size	frq, 4
 1883              	frq:
 1884 0004 00366E01 		.word	24000000
 1885              		.data
 1886              		.set	.LANCHOR1,. + 0
 1887              		.type	selectedNoteRange, %object
 1888              		.size	selectedNoteRange, 1
 1889              	selectedNoteRange:
 1890 0000 02       		.byte	2
 1891              		.section	.rodata.str1.4,"aMS",%progbits,1
 1892              		.align	2
 1893              	.LC0:
 1894 0000 50657269 		.ascii	"Periodo global actual: %i\015\012\000"
 1894      6F646F20 
 1894      676C6F62 
 1894      616C2061 
 1894      63747561 
ARM GAS  C:\Users\Fede\AppData\Local\Temp\ccsbcQCm.s 			page 41


 1895              	.LC1:
 1896 001c 46726563 		.ascii	"Frecuencia actual de la nota %i: %i\015\012\000"
 1896      75656E63 
 1896      69612061 
 1896      63747561 
 1896      6C206465 
 1897 0042 0000     		.space	2
 1898              	.LC2:
 1899 0044 2D2D2D2D 		.ascii	"------------------------------------------\015\012\000"
 1899      2D2D2D2D 
 1899      2D2D2D2D 
 1899      2D2D2D2D 
 1899      2D2D2D2D 
 1900 0071 000000   		.space	3
 1901              	.LC3:
 1902 0074 4D6F6469 		.ascii	"Modificando la nota %i:\015\012\000"
 1902      66696361 
 1902      6E646F20 
 1902      6C61206E 
 1902      6F746120 
 1903 008e 0000     		.space	2
 1904              	.LC4:
 1905 0090 50756C73 		.ascii	"Pulse 1-8 para notas prefijadas,\015\012\000"
 1905      6520312D 
 1905      38207061 
 1905      7261206E 
 1905      6F746173 
 1906 00b3 00       		.space	1
 1907              	.LC5:
 1908 00b4 6F202B2F 		.ascii	"o +/- para cambiar manualmente la frecuencia.\015\012"
 1908      2D207061 
 1908      72612063 
 1908      616D6269 
 1908      6172206D 
 1909 00e3 00       		.ascii	"\000"
 1910              	.LC6:
 1911 00e4 50756C73 		.ascii	"Pulse L, M o H para cambiar el registro de las nota"
 1911      65204C2C 
 1911      204D206F 
 1911      20482070 
 1911      61726120 
 1912 0117 73207072 		.ascii	"s prefijadas.\015\012\000"
 1912      6566696A 
 1912      61646173 
 1912      2E0D0A00 
 1913 0127 00       		.space	1
 1914              	.LC7:
 1915 0128 4E6F7465 		.ascii	"Notes sequencer: \015\012\000"
 1915      73207365 
 1915      7175656E 
 1915      6365723A 
 1915      200D0A00 
 1916              	.LC8:
 1917 013c 50726573 		.ascii	"Press 1, 2, 3 or 4 to select the note to configure "
 1917      7320312C 
 1917      20322C20 
 1917      33206F72 
ARM GAS  C:\Users\Fede\AppData\Local\Temp\ccsbcQCm.s 			page 42


 1917      20342074 
 1918 016f 6F722072 		.ascii	"or r to reset.\015\012\000"
 1918      20746F20 
 1918      72657365 
 1918      742E0D0A 
 1918      00
 1919              	.LC9:
 1920 0180 76616C6F 		.ascii	"valor minimo alcanzado.\015\012\000"
 1920      72206D69 
 1920      6E696D6F 
 1920      20616C63 
 1920      616E7A61 
 1921 019a 0000     		.space	2
 1922              	.LC10:
 1923 019c 76616C6F 		.ascii	"valor maximo alcanzado.\015\012\000"
 1923      72206D61 
 1923      78696D6F 
 1923      20616C63 
 1923      616E7A61 
 1924 01b6 0000     		.space	2
 1925              	.LC11:
 1926 01b8 53697374 		.ascii	"Sistema reiniciado\015\012\000"
 1926      656D6120 
 1926      7265696E 
 1926      69636961 
 1926      646F0D0A 
 1927 01cd 000000   		.space	3
 1928              	.LC12:
 1929 01d0 4E6F7420 		.ascii	"Not a valid input\015\012\000"
 1929      61207661 
 1929      6C696420 
 1929      696E7075 
 1929      740D0A00 
 1930              	.LC13:
 1931 01e4 53656C65 		.ascii	"Selected note range: LOW\015\012\000"
 1931      63746564 
 1931      206E6F74 
 1931      65207261 
 1931      6E67653A 
 1932 01ff 00       		.space	1
 1933              	.LC14:
 1934 0200 53656C65 		.ascii	"Selected note range: MEDIUM\015\012\000"
 1934      63746564 
 1934      206E6F74 
 1934      65207261 
 1934      6E67653A 
 1935 021e 0000     		.space	2
 1936              	.LC15:
 1937 0220 53656C65 		.ascii	"Selected note range: HIGH\015\012\000"
 1937      63746564 
 1937      206E6F74 
 1937      65207261 
 1937      6E67653A 
 1938              		.bss
 1939              		.set	.LANCHOR0,. + 0
 1940              		.type	oneSecondCount, %object
 1941              		.size	oneSecondCount, 1
ARM GAS  C:\Users\Fede\AppData\Local\Temp\ccsbcQCm.s 			page 43


 1942              	oneSecondCount:
 1943 0000 00       		.space	1
 1944              		.type	selectedNote, %object
 1945              		.size	selectedNote, 1
 1946              	selectedNote:
 1947 0001 00       		.space	1
 1948              		.text
 1949              	.Letext0:
 1950              		.file 2 "c:\\program files (x86)\\cypress\\psoc creator\\4.2\\psoc creator\\import\\gnu\\arm\\5.4.
 1951              		.file 3 "c:\\program files (x86)\\cypress\\psoc creator\\4.2\\psoc creator\\import\\gnu\\arm\\5.4.
 1952              		.file 4 "Generated_Source\\PSoC5/cytypes.h"
 1953              		.file 5 "<built-in>"
 1954              		.file 6 "Generated_Source\\PSoC5/core_cm3.h"
 1955              		.file 7 "Generated_Source\\PSoC5/UART_1.h"
 1956              		.file 8 "Generated_Source\\PSoC5/Clock_1.h"
 1957              		.file 9 "Generated_Source\\PSoC5/Clock_2.h"
 1958              		.file 10 "Generated_Source\\PSoC5/Clock_3.h"
 1959              		.file 11 "Generated_Source\\PSoC5/Clock_4.h"
 1960              		.file 12 "Generated_Source\\PSoC5/CyLib.h"
 1961              		.file 13 "Generated_Source\\PSoC5/Pin_Led.h"
 1962              		.file 14 "Generated_Source\\PSoC5/ADC_LongitudNota.h"
 1963              		.file 15 "Generated_Source\\PSoC5/Timer1.h"
 1964              		.file 16 "Generated_Source\\PSoC5/PWM_1.h"
 1965              		.file 17 "Generated_Source\\PSoC5/isr_timer.h"
 1966              		.file 18 "Generated_Source\\PSoC5/isr_rx.h"
 1967              		.file 19 "Generated_Source\\PSoC5/WaveDAC8_1.h"
 1968              		.file 20 "Generated_Source\\PSoC5/Opamp_1.h"